
Prog_minisumo_bullet_xt_v.3.elf:     file format elf32-avr

Sections:
Idx Name          Size      VMA       LMA       File off  Algn
  0 .text         00002266  00000000  00000000  00000094  2**1
                  CONTENTS, ALLOC, LOAD, READONLY, CODE
  1 .data         00000128  00802000  00002266  000022fa  2**0
                  CONTENTS, ALLOC, LOAD, DATA
  2 .bss          00000043  00802128  00802128  00002422  2**0
                  ALLOC
  3 .comment      0000005c  00000000  00000000  00002422  2**0
                  CONTENTS, READONLY
  4 .debug_aranges 00000288  00000000  00000000  0000247e  2**0
                  CONTENTS, READONLY, DEBUGGING
  5 .debug_info   00006759  00000000  00000000  00002706  2**0
                  CONTENTS, READONLY, DEBUGGING
  6 .debug_abbrev 0000114b  00000000  00000000  00008e5f  2**0
                  CONTENTS, READONLY, DEBUGGING
  7 .debug_line   0000216b  00000000  00000000  00009faa  2**0
                  CONTENTS, READONLY, DEBUGGING
  8 .debug_frame  000006b0  00000000  00000000  0000c118  2**2
                  CONTENTS, READONLY, DEBUGGING
  9 .debug_str    00001cc4  00000000  00000000  0000c7c8  2**0
                  CONTENTS, READONLY, DEBUGGING
 10 .debug_loc    000016d8  00000000  00000000  0000e48c  2**0
                  CONTENTS, READONLY, DEBUGGING
 11 .debug_ranges 00000230  00000000  00000000  0000fb64  2**0
                  CONTENTS, READONLY, DEBUGGING

Disassembly of section .text:

00000000 <__vectors>:
       0:	9a c3       	rjmp	.+1844   	; 0x736 <__ctors_end>
       2:	00 00       	nop
       4:	b8 c3       	rjmp	.+1904   	; 0x776 <__bad_interrupt>
       6:	00 00       	nop
       8:	0c 94 f3 0c 	jmp	0x19e6	; 0x19e6 <__vector_2>
       c:	0c 94 04 0d 	jmp	0x1a08	; 0x1a08 <__vector_3>
      10:	b2 c3       	rjmp	.+1892   	; 0x776 <__bad_interrupt>
      12:	00 00       	nop
      14:	b0 c3       	rjmp	.+1888   	; 0x776 <__bad_interrupt>
      16:	00 00       	nop
      18:	ae c3       	rjmp	.+1884   	; 0x776 <__bad_interrupt>
      1a:	00 00       	nop
      1c:	ac c3       	rjmp	.+1880   	; 0x776 <__bad_interrupt>
      1e:	00 00       	nop
      20:	aa c3       	rjmp	.+1876   	; 0x776 <__bad_interrupt>
      22:	00 00       	nop
      24:	a8 c3       	rjmp	.+1872   	; 0x776 <__bad_interrupt>
      26:	00 00       	nop
      28:	0c 94 b7 0d 	jmp	0x1b6e	; 0x1b6e <__vector_10>
      2c:	a4 c3       	rjmp	.+1864   	; 0x776 <__bad_interrupt>
      2e:	00 00       	nop
      30:	a2 c3       	rjmp	.+1860   	; 0x776 <__bad_interrupt>
      32:	00 00       	nop
      34:	a0 c3       	rjmp	.+1856   	; 0x776 <__bad_interrupt>
      36:	00 00       	nop
      38:	9e c3       	rjmp	.+1852   	; 0x776 <__bad_interrupt>
      3a:	00 00       	nop
      3c:	9c c3       	rjmp	.+1848   	; 0x776 <__bad_interrupt>
      3e:	00 00       	nop
      40:	9a c3       	rjmp	.+1844   	; 0x776 <__bad_interrupt>
      42:	00 00       	nop
      44:	98 c3       	rjmp	.+1840   	; 0x776 <__bad_interrupt>
      46:	00 00       	nop
      48:	96 c3       	rjmp	.+1836   	; 0x776 <__bad_interrupt>
      4a:	00 00       	nop
      4c:	94 c3       	rjmp	.+1832   	; 0x776 <__bad_interrupt>
      4e:	00 00       	nop
      50:	92 c3       	rjmp	.+1828   	; 0x776 <__bad_interrupt>
      52:	00 00       	nop
      54:	90 c3       	rjmp	.+1824   	; 0x776 <__bad_interrupt>
      56:	00 00       	nop
      58:	8e c3       	rjmp	.+1820   	; 0x776 <__bad_interrupt>
      5a:	00 00       	nop
      5c:	8c c3       	rjmp	.+1816   	; 0x776 <__bad_interrupt>
      5e:	00 00       	nop
      60:	8a c3       	rjmp	.+1812   	; 0x776 <__bad_interrupt>
      62:	00 00       	nop
      64:	0c 94 dc 0d 	jmp	0x1bb8	; 0x1bb8 <__vector_25>
      68:	86 c3       	rjmp	.+1804   	; 0x776 <__bad_interrupt>
      6a:	00 00       	nop
      6c:	84 c3       	rjmp	.+1800   	; 0x776 <__bad_interrupt>
      6e:	00 00       	nop
      70:	82 c3       	rjmp	.+1796   	; 0x776 <__bad_interrupt>
      72:	00 00       	nop
      74:	80 c3       	rjmp	.+1792   	; 0x776 <__bad_interrupt>
      76:	00 00       	nop
      78:	7e c3       	rjmp	.+1788   	; 0x776 <__bad_interrupt>
      7a:	00 00       	nop
      7c:	7c c3       	rjmp	.+1784   	; 0x776 <__bad_interrupt>
      7e:	00 00       	nop
      80:	7a c3       	rjmp	.+1780   	; 0x776 <__bad_interrupt>
      82:	00 00       	nop
      84:	78 c3       	rjmp	.+1776   	; 0x776 <__bad_interrupt>
      86:	00 00       	nop
      88:	76 c3       	rjmp	.+1772   	; 0x776 <__bad_interrupt>
      8a:	00 00       	nop
      8c:	74 c3       	rjmp	.+1768   	; 0x776 <__bad_interrupt>
      8e:	00 00       	nop
      90:	72 c3       	rjmp	.+1764   	; 0x776 <__bad_interrupt>
      92:	00 00       	nop
      94:	70 c3       	rjmp	.+1760   	; 0x776 <__bad_interrupt>
      96:	00 00       	nop
      98:	6e c3       	rjmp	.+1756   	; 0x776 <__bad_interrupt>
      9a:	00 00       	nop
      9c:	6c c3       	rjmp	.+1752   	; 0x776 <__bad_interrupt>
      9e:	00 00       	nop
      a0:	6a c3       	rjmp	.+1748   	; 0x776 <__bad_interrupt>
      a2:	00 00       	nop
      a4:	68 c3       	rjmp	.+1744   	; 0x776 <__bad_interrupt>
      a6:	00 00       	nop
      a8:	66 c3       	rjmp	.+1740   	; 0x776 <__bad_interrupt>
      aa:	00 00       	nop
      ac:	0c 94 df 0c 	jmp	0x19be	; 0x19be <__vector_43>
      b0:	0c 94 e9 0c 	jmp	0x19d2	; 0x19d2 <__vector_44>
      b4:	60 c3       	rjmp	.+1728   	; 0x776 <__bad_interrupt>
      b6:	00 00       	nop
      b8:	5e c3       	rjmp	.+1724   	; 0x776 <__bad_interrupt>
      ba:	00 00       	nop
      bc:	0c 94 37 0d 	jmp	0x1a6e	; 0x1a6e <__vector_47>
      c0:	5a c3       	rjmp	.+1716   	; 0x776 <__bad_interrupt>
      c2:	00 00       	nop
      c4:	58 c3       	rjmp	.+1712   	; 0x776 <__bad_interrupt>
      c6:	00 00       	nop
      c8:	56 c3       	rjmp	.+1708   	; 0x776 <__bad_interrupt>
      ca:	00 00       	nop
      cc:	54 c3       	rjmp	.+1704   	; 0x776 <__bad_interrupt>
      ce:	00 00       	nop
      d0:	52 c3       	rjmp	.+1700   	; 0x776 <__bad_interrupt>
      d2:	00 00       	nop
      d4:	50 c3       	rjmp	.+1696   	; 0x776 <__bad_interrupt>
      d6:	00 00       	nop
      d8:	4e c3       	rjmp	.+1692   	; 0x776 <__bad_interrupt>
      da:	00 00       	nop
      dc:	4c c3       	rjmp	.+1688   	; 0x776 <__bad_interrupt>
      de:	00 00       	nop
      e0:	4a c3       	rjmp	.+1684   	; 0x776 <__bad_interrupt>
      e2:	00 00       	nop
      e4:	48 c3       	rjmp	.+1680   	; 0x776 <__bad_interrupt>
      e6:	00 00       	nop
      e8:	46 c3       	rjmp	.+1676   	; 0x776 <__bad_interrupt>
      ea:	00 00       	nop
      ec:	44 c3       	rjmp	.+1672   	; 0x776 <__bad_interrupt>
      ee:	00 00       	nop
      f0:	42 c3       	rjmp	.+1668   	; 0x776 <__bad_interrupt>
      f2:	00 00       	nop
      f4:	40 c3       	rjmp	.+1664   	; 0x776 <__bad_interrupt>
      f6:	00 00       	nop
      f8:	3e c3       	rjmp	.+1660   	; 0x776 <__bad_interrupt>
      fa:	00 00       	nop
      fc:	3c c3       	rjmp	.+1656   	; 0x776 <__bad_interrupt>
      fe:	00 00       	nop
     100:	0c 94 bd 0c 	jmp	0x197a	; 0x197a <__vector_64>
     104:	0c 94 ce 0c 	jmp	0x199c	; 0x199c <__vector_65>
     108:	0c 94 15 0d 	jmp	0x1a2a	; 0x1a2a <__vector_66>
     10c:	0c 94 26 0d 	jmp	0x1a4c	; 0x1a4c <__vector_67>
     110:	32 c3       	rjmp	.+1636   	; 0x776 <__bad_interrupt>
     112:	00 00       	nop
     114:	30 c3       	rjmp	.+1632   	; 0x776 <__bad_interrupt>
     116:	00 00       	nop
     118:	2e c3       	rjmp	.+1628   	; 0x776 <__bad_interrupt>
     11a:	00 00       	nop
     11c:	2c c3       	rjmp	.+1624   	; 0x776 <__bad_interrupt>
     11e:	00 00       	nop
     120:	2a c3       	rjmp	.+1620   	; 0x776 <__bad_interrupt>
     122:	00 00       	nop
     124:	28 c3       	rjmp	.+1616   	; 0x776 <__bad_interrupt>
     126:	00 00       	nop
     128:	26 c3       	rjmp	.+1612   	; 0x776 <__bad_interrupt>
     12a:	00 00       	nop
     12c:	24 c3       	rjmp	.+1608   	; 0x776 <__bad_interrupt>
     12e:	00 00       	nop
     130:	22 c3       	rjmp	.+1604   	; 0x776 <__bad_interrupt>
     132:	00 00       	nop
     134:	20 c3       	rjmp	.+1600   	; 0x776 <__bad_interrupt>
     136:	00 00       	nop
     138:	1e c3       	rjmp	.+1596   	; 0x776 <__bad_interrupt>
     13a:	00 00       	nop
     13c:	1c c3       	rjmp	.+1592   	; 0x776 <__bad_interrupt>
     13e:	00 00       	nop
     140:	1a c3       	rjmp	.+1588   	; 0x776 <__bad_interrupt>
     142:	00 00       	nop
     144:	18 c3       	rjmp	.+1584   	; 0x776 <__bad_interrupt>
     146:	00 00       	nop
     148:	16 c3       	rjmp	.+1580   	; 0x776 <__bad_interrupt>
     14a:	00 00       	nop
     14c:	14 c3       	rjmp	.+1576   	; 0x776 <__bad_interrupt>
     14e:	00 00       	nop
     150:	12 c3       	rjmp	.+1572   	; 0x776 <__bad_interrupt>
     152:	00 00       	nop
     154:	10 c3       	rjmp	.+1568   	; 0x776 <__bad_interrupt>
     156:	00 00       	nop
     158:	0e c3       	rjmp	.+1564   	; 0x776 <__bad_interrupt>
     15a:	00 00       	nop
     15c:	0c c3       	rjmp	.+1560   	; 0x776 <__bad_interrupt>
     15e:	00 00       	nop
     160:	0a c3       	rjmp	.+1556   	; 0x776 <__bad_interrupt>
     162:	00 00       	nop
     164:	08 c3       	rjmp	.+1552   	; 0x776 <__bad_interrupt>
     166:	00 00       	nop
     168:	06 c3       	rjmp	.+1548   	; 0x776 <__bad_interrupt>
     16a:	00 00       	nop
     16c:	04 c3       	rjmp	.+1544   	; 0x776 <__bad_interrupt>
     16e:	00 00       	nop
     170:	02 c3       	rjmp	.+1540   	; 0x776 <__bad_interrupt>
     172:	00 00       	nop
     174:	00 c3       	rjmp	.+1536   	; 0x776 <__bad_interrupt>
     176:	00 00       	nop
     178:	fe c2       	rjmp	.+1532   	; 0x776 <__bad_interrupt>
     17a:	00 00       	nop
     17c:	fc c2       	rjmp	.+1528   	; 0x776 <__bad_interrupt>
     17e:	00 00       	nop
     180:	fa c2       	rjmp	.+1524   	; 0x776 <__bad_interrupt>
     182:	00 00       	nop
     184:	f8 c2       	rjmp	.+1520   	; 0x776 <__bad_interrupt>
     186:	00 00       	nop
     188:	f6 c2       	rjmp	.+1516   	; 0x776 <__bad_interrupt>
     18a:	00 00       	nop
     18c:	f4 c2       	rjmp	.+1512   	; 0x776 <__bad_interrupt>
     18e:	00 00       	nop
     190:	f2 c2       	rjmp	.+1508   	; 0x776 <__bad_interrupt>
     192:	00 00       	nop
     194:	f0 c2       	rjmp	.+1504   	; 0x776 <__bad_interrupt>
     196:	00 00       	nop
     198:	ee c2       	rjmp	.+1500   	; 0x776 <__bad_interrupt>
     19a:	00 00       	nop
     19c:	ec c2       	rjmp	.+1496   	; 0x776 <__bad_interrupt>
     19e:	00 00       	nop
     1a0:	ea c2       	rjmp	.+1492   	; 0x776 <__bad_interrupt>
     1a2:	00 00       	nop
     1a4:	e8 c2       	rjmp	.+1488   	; 0x776 <__bad_interrupt>
     1a6:	00 00       	nop
     1a8:	e6 c2       	rjmp	.+1484   	; 0x776 <__bad_interrupt>
     1aa:	00 00       	nop
     1ac:	e4 c2       	rjmp	.+1480   	; 0x776 <__bad_interrupt>
     1ae:	00 00       	nop
     1b0:	e2 c2       	rjmp	.+1476   	; 0x776 <__bad_interrupt>
     1b2:	00 00       	nop
     1b4:	e0 c2       	rjmp	.+1472   	; 0x776 <__bad_interrupt>
     1b6:	00 00       	nop
     1b8:	de c2       	rjmp	.+1468   	; 0x776 <__bad_interrupt>
     1ba:	00 00       	nop
     1bc:	dc c2       	rjmp	.+1464   	; 0x776 <__bad_interrupt>
     1be:	00 00       	nop
     1c0:	da c2       	rjmp	.+1460   	; 0x776 <__bad_interrupt>
     1c2:	00 00       	nop
     1c4:	d8 c2       	rjmp	.+1456   	; 0x776 <__bad_interrupt>
     1c6:	00 00       	nop
     1c8:	d6 c2       	rjmp	.+1452   	; 0x776 <__bad_interrupt>
     1ca:	00 00       	nop
     1cc:	d4 c2       	rjmp	.+1448   	; 0x776 <__bad_interrupt>
     1ce:	00 00       	nop
     1d0:	d2 c2       	rjmp	.+1444   	; 0x776 <__bad_interrupt>
     1d2:	00 00       	nop
     1d4:	d0 c2       	rjmp	.+1440   	; 0x776 <__bad_interrupt>
     1d6:	00 00       	nop
     1d8:	ce c2       	rjmp	.+1436   	; 0x776 <__bad_interrupt>
     1da:	00 00       	nop
     1dc:	cc c2       	rjmp	.+1432   	; 0x776 <__bad_interrupt>
     1de:	00 00       	nop
     1e0:	ca c2       	rjmp	.+1428   	; 0x776 <__bad_interrupt>
     1e2:	00 00       	nop
     1e4:	c8 c2       	rjmp	.+1424   	; 0x776 <__bad_interrupt>
     1e6:	00 00       	nop
     1e8:	c6 c2       	rjmp	.+1420   	; 0x776 <__bad_interrupt>
     1ea:	00 00       	nop
     1ec:	c4 c2       	rjmp	.+1416   	; 0x776 <__bad_interrupt>
     1ee:	00 00       	nop
     1f0:	c2 c2       	rjmp	.+1412   	; 0x776 <__bad_interrupt>
     1f2:	00 00       	nop
     1f4:	c0 c2       	rjmp	.+1408   	; 0x776 <__bad_interrupt>
     1f6:	00 00       	nop
     1f8:	be c2       	rjmp	.+1404   	; 0x776 <__bad_interrupt>
     1fa:	00 00       	nop
     1fc:	0b 0e       	add	r0, r27
     1fe:	08 0e       	add	r0, r24
     200:	27 0e       	add	r2, r23
     202:	27 0e       	add	r2, r23
     204:	27 0e       	add	r2, r23
     206:	27 0e       	add	r2, r23
     208:	27 0e       	add	r2, r23
     20a:	27 0e       	add	r2, r23
     20c:	27 0e       	add	r2, r23
     20e:	02 0e       	add	r0, r18
     210:	27 0e       	add	r2, r23
     212:	27 0e       	add	r2, r23
     214:	27 0e       	add	r2, r23
     216:	27 0e       	add	r2, r23
     218:	27 0e       	add	r2, r23
     21a:	ff 0d       	add	r31, r15
     21c:	27 0e       	add	r2, r23
     21e:	27 0e       	add	r2, r23
     220:	05 0e       	add	r0, r21
     222:	27 0e       	add	r2, r23
     224:	27 0e       	add	r2, r23
     226:	27 0e       	add	r2, r23
     228:	27 0e       	add	r2, r23
     22a:	27 0e       	add	r2, r23
     22c:	27 0e       	add	r2, r23
     22e:	27 0e       	add	r2, r23
     230:	27 0e       	add	r2, r23
     232:	27 0e       	add	r2, r23
     234:	27 0e       	add	r2, r23
     236:	27 0e       	add	r2, r23
     238:	0d 0e       	add	r0, r29
     23a:	1a 0e       	add	r1, r26
     23c:	21 0e       	add	r2, r17

0000023e <__trampolines_end>:
	...
     246:	5f 00       	.word	0x005f	; ????
     248:	00 00       	nop
     24a:	00 07       	cpc	r16, r16
     24c:	00 07       	cpc	r16, r16
     24e:	00 00       	nop
     250:	14 7f       	andi	r17, 0xF4	; 244
     252:	14 7f       	andi	r17, 0xF4	; 244
     254:	14 00       	.word	0x0014	; ????
     256:	24 2a       	or	r2, r20
     258:	7f 2a       	or	r7, r31
     25a:	12 00       	.word	0x0012	; ????
     25c:	23 13       	cpse	r18, r19
     25e:	08 64       	ori	r16, 0x48	; 72
     260:	62 00       	.word	0x0062	; ????
     262:	36 49       	sbci	r19, 0x96	; 150
     264:	55 22       	and	r5, r21
     266:	50 00       	.word	0x0050	; ????
     268:	00 00       	nop
     26a:	03 00       	.word	0x0003	; ????
     26c:	00 00       	nop
     26e:	00 1c       	adc	r0, r0
     270:	22 41       	sbci	r18, 0x12	; 18
     272:	00 00       	nop
     274:	00 41       	sbci	r16, 0x10	; 16
     276:	22 1c       	adc	r2, r2
     278:	00 00       	nop
     27a:	14 08       	sbc	r1, r4
     27c:	3e 08       	sbc	r3, r14
     27e:	14 00       	.word	0x0014	; ????
     280:	08 08       	sbc	r0, r8
     282:	3e 08       	sbc	r3, r14
     284:	08 00       	.word	0x0008	; ????
     286:	00 50       	subi	r16, 0x00	; 0
     288:	30 00       	.word	0x0030	; ????
     28a:	00 00       	nop
     28c:	08 08       	sbc	r0, r8
     28e:	08 08       	sbc	r0, r8
     290:	08 00       	.word	0x0008	; ????
     292:	00 60       	ori	r16, 0x00	; 0
     294:	60 00       	.word	0x0060	; ????
     296:	00 00       	nop
     298:	20 10       	cpse	r2, r0
     29a:	08 04       	cpc	r0, r8
     29c:	02 00       	.word	0x0002	; ????
     29e:	3e 51       	subi	r19, 0x1E	; 30
     2a0:	49 45       	sbci	r20, 0x59	; 89
     2a2:	3e 00       	.word	0x003e	; ????
     2a4:	00 42       	sbci	r16, 0x20	; 32
     2a6:	7f 40       	sbci	r23, 0x0F	; 15
     2a8:	00 00       	nop
     2aa:	42 61       	ori	r20, 0x12	; 18
     2ac:	51 49       	sbci	r21, 0x91	; 145
     2ae:	46 00       	.word	0x0046	; ????
     2b0:	21 41       	sbci	r18, 0x11	; 17
     2b2:	45 4b       	sbci	r20, 0xB5	; 181
     2b4:	31 00       	.word	0x0031	; ????
     2b6:	18 14       	cp	r1, r8
     2b8:	12 7f       	andi	r17, 0xF2	; 242
     2ba:	10 00       	.word	0x0010	; ????
     2bc:	27 45       	sbci	r18, 0x57	; 87
     2be:	45 45       	sbci	r20, 0x55	; 85
     2c0:	39 00       	.word	0x0039	; ????
     2c2:	3c 4a       	sbci	r19, 0xAC	; 172
     2c4:	49 49       	sbci	r20, 0x99	; 153
     2c6:	30 00       	.word	0x0030	; ????
     2c8:	03 71       	andi	r16, 0x13	; 19
     2ca:	09 05       	cpc	r16, r9
     2cc:	03 00       	.word	0x0003	; ????
     2ce:	36 49       	sbci	r19, 0x96	; 150
     2d0:	49 49       	sbci	r20, 0x99	; 153
     2d2:	36 00       	.word	0x0036	; ????
     2d4:	06 49       	sbci	r16, 0x96	; 150
     2d6:	49 29       	or	r20, r9
     2d8:	1e 00       	.word	0x001e	; ????
     2da:	00 36       	cpi	r16, 0x60	; 96
     2dc:	36 00       	.word	0x0036	; ????
     2de:	00 00       	nop
     2e0:	00 56       	subi	r16, 0x60	; 96
     2e2:	36 00       	.word	0x0036	; ????
     2e4:	00 00       	nop
     2e6:	08 14       	cp	r0, r8
     2e8:	22 41       	sbci	r18, 0x12	; 18
     2ea:	00 00       	nop
     2ec:	14 14       	cp	r1, r4
     2ee:	14 14       	cp	r1, r4
     2f0:	14 00       	.word	0x0014	; ????
     2f2:	00 41       	sbci	r16, 0x10	; 16
     2f4:	22 14       	cp	r2, r2
     2f6:	08 00       	.word	0x0008	; ????
     2f8:	02 01       	movw	r0, r4
     2fa:	51 09       	sbc	r21, r1
     2fc:	06 00       	.word	0x0006	; ????
     2fe:	32 49       	sbci	r19, 0x92	; 146
     300:	79 41       	sbci	r23, 0x19	; 25
     302:	3e 00       	.word	0x003e	; ????
     304:	7e 11       	cpse	r23, r14
     306:	11 11       	cpse	r17, r1
     308:	7e 00       	.word	0x007e	; ????
     30a:	7f 49       	sbci	r23, 0x9F	; 159
     30c:	49 49       	sbci	r20, 0x99	; 153
     30e:	36 00       	.word	0x0036	; ????
     310:	3e 41       	sbci	r19, 0x1E	; 30
     312:	41 41       	sbci	r20, 0x11	; 17
     314:	22 00       	.word	0x0022	; ????
     316:	7f 41       	sbci	r23, 0x1F	; 31
     318:	41 41       	sbci	r20, 0x11	; 17
     31a:	3e 00       	.word	0x003e	; ????
     31c:	7f 49       	sbci	r23, 0x9F	; 159
     31e:	49 49       	sbci	r20, 0x99	; 153
     320:	41 00       	.word	0x0041	; ????
     322:	7f 09       	sbc	r23, r15
     324:	09 09       	sbc	r16, r9
     326:	01 00       	.word	0x0001	; ????
     328:	3e 41       	sbci	r19, 0x1E	; 30
     32a:	41 49       	sbci	r20, 0x91	; 145
     32c:	7a 00       	.word	0x007a	; ????
     32e:	7f 08       	sbc	r7, r15
     330:	08 08       	sbc	r0, r8
     332:	7f 00       	.word	0x007f	; ????
     334:	00 41       	sbci	r16, 0x10	; 16
     336:	7f 41       	sbci	r23, 0x1F	; 31
     338:	00 00       	nop
     33a:	20 40       	sbci	r18, 0x00	; 0
     33c:	41 3f       	cpi	r20, 0xF1	; 241
     33e:	01 00       	.word	0x0001	; ????
     340:	7f 08       	sbc	r7, r15
     342:	14 22       	and	r1, r20
     344:	41 00       	.word	0x0041	; ????
     346:	7f 40       	sbci	r23, 0x0F	; 15
     348:	40 40       	sbci	r20, 0x00	; 0
     34a:	40 00       	.word	0x0040	; ????
     34c:	7f 02       	muls	r23, r31
     34e:	0c 02       	muls	r16, r28
     350:	7f 00       	.word	0x007f	; ????
     352:	7f 04       	cpc	r7, r15
     354:	08 10       	cpse	r0, r8
     356:	7f 00       	.word	0x007f	; ????
     358:	3e 41       	sbci	r19, 0x1E	; 30
     35a:	41 41       	sbci	r20, 0x11	; 17
     35c:	3e 00       	.word	0x003e	; ????
     35e:	7f 09       	sbc	r23, r15
     360:	09 09       	sbc	r16, r9
     362:	06 00       	.word	0x0006	; ????
     364:	3e 41       	sbci	r19, 0x1E	; 30
     366:	51 21       	and	r21, r1
     368:	5e 00       	.word	0x005e	; ????
     36a:	7f 09       	sbc	r23, r15
     36c:	19 29       	or	r17, r9
     36e:	46 00       	.word	0x0046	; ????
     370:	46 49       	sbci	r20, 0x96	; 150
     372:	49 49       	sbci	r20, 0x99	; 153
     374:	31 00       	.word	0x0031	; ????
     376:	01 01       	movw	r0, r2
     378:	7f 01       	movw	r14, r30
     37a:	01 00       	.word	0x0001	; ????
     37c:	3f 40       	sbci	r19, 0x0F	; 15
     37e:	40 40       	sbci	r20, 0x00	; 0
     380:	3f 00       	.word	0x003f	; ????
     382:	1f 20       	and	r1, r15
     384:	40 20       	and	r4, r0
     386:	1f 00       	.word	0x001f	; ????
     388:	3f 40       	sbci	r19, 0x0F	; 15
     38a:	38 40       	sbci	r19, 0x08	; 8
     38c:	3f 00       	.word	0x003f	; ????
     38e:	63 14       	cp	r6, r3
     390:	08 14       	cp	r0, r8
     392:	63 00       	.word	0x0063	; ????
     394:	07 08       	sbc	r0, r7
     396:	70 08       	sbc	r7, r0
     398:	07 00       	.word	0x0007	; ????
     39a:	61 51       	subi	r22, 0x11	; 17
     39c:	49 45       	sbci	r20, 0x59	; 89
     39e:	43 00       	.word	0x0043	; ????
     3a0:	00 7f       	andi	r16, 0xF0	; 240
     3a2:	41 41       	sbci	r20, 0x11	; 17
     3a4:	00 00       	nop
     3a6:	02 04       	cpc	r0, r2
     3a8:	08 10       	cpse	r0, r8
     3aa:	20 00       	.word	0x0020	; ????
     3ac:	00 41       	sbci	r16, 0x10	; 16
     3ae:	41 7f       	andi	r20, 0xF1	; 241
     3b0:	00 00       	nop
     3b2:	04 02       	muls	r16, r20
     3b4:	01 02       	muls	r16, r17
     3b6:	04 00       	.word	0x0004	; ????
     3b8:	40 40       	sbci	r20, 0x00	; 0
     3ba:	40 40       	sbci	r20, 0x00	; 0
     3bc:	40 00       	.word	0x0040	; ????
     3be:	00 01       	movw	r0, r0
     3c0:	02 04       	cpc	r0, r2
     3c2:	00 00       	nop
     3c4:	20 54       	subi	r18, 0x40	; 64
     3c6:	54 54       	subi	r21, 0x44	; 68
     3c8:	78 00       	.word	0x0078	; ????
     3ca:	7f 48       	sbci	r23, 0x8F	; 143
     3cc:	44 44       	sbci	r20, 0x44	; 68
     3ce:	38 00       	.word	0x0038	; ????
     3d0:	38 44       	sbci	r19, 0x48	; 72
     3d2:	44 44       	sbci	r20, 0x44	; 68
     3d4:	20 00       	.word	0x0020	; ????
     3d6:	38 44       	sbci	r19, 0x48	; 72
     3d8:	44 48       	sbci	r20, 0x84	; 132
     3da:	7f 00       	.word	0x007f	; ????
     3dc:	38 54       	subi	r19, 0x48	; 72
     3de:	54 54       	subi	r21, 0x44	; 68
     3e0:	18 00       	.word	0x0018	; ????
     3e2:	08 7e       	andi	r16, 0xE8	; 232
     3e4:	09 01       	movw	r0, r18
     3e6:	02 00       	.word	0x0002	; ????
     3e8:	18 a4       	ldd	r1, Y+40	; 0x28
     3ea:	a4 a4       	ldd	r10, Z+44	; 0x2c
     3ec:	7c 00       	.word	0x007c	; ????
     3ee:	7f 08       	sbc	r7, r15
     3f0:	04 04       	cpc	r0, r4
     3f2:	78 00       	.word	0x0078	; ????
     3f4:	00 48       	sbci	r16, 0x80	; 128
     3f6:	7d 40       	sbci	r23, 0x0D	; 13
     3f8:	00 00       	nop
     3fa:	00 00       	nop
     3fc:	84 7d       	andi	r24, 0xD4	; 212
     3fe:	00 00       	nop
     400:	7f 10       	cpse	r7, r15
     402:	28 44       	sbci	r18, 0x48	; 72
     404:	00 00       	nop
     406:	00 41       	sbci	r16, 0x10	; 16
     408:	7f 40       	sbci	r23, 0x0F	; 15
     40a:	00 00       	nop
     40c:	7c 04       	cpc	r7, r12
     40e:	78 04       	cpc	r7, r8
     410:	78 00       	.word	0x0078	; ????
     412:	7c 08       	sbc	r7, r12
     414:	04 04       	cpc	r0, r4
     416:	78 00       	.word	0x0078	; ????
     418:	38 44       	sbci	r19, 0x48	; 72
     41a:	44 44       	sbci	r20, 0x44	; 68
     41c:	38 00       	.word	0x0038	; ????
     41e:	fc 24       	eor	r15, r12
     420:	24 24       	eor	r2, r4
     422:	18 00       	.word	0x0018	; ????
     424:	18 24       	eor	r1, r8
     426:	24 28       	or	r2, r4
     428:	fc 00       	.word	0x00fc	; ????
     42a:	7c 08       	sbc	r7, r12
     42c:	04 04       	cpc	r0, r4
     42e:	08 00       	.word	0x0008	; ????
     430:	48 54       	subi	r20, 0x48	; 72
     432:	54 54       	subi	r21, 0x44	; 68
     434:	20 00       	.word	0x0020	; ????
     436:	04 3f       	cpi	r16, 0xF4	; 244
     438:	44 40       	sbci	r20, 0x04	; 4
     43a:	20 00       	.word	0x0020	; ????
     43c:	3c 40       	sbci	r19, 0x0C	; 12
     43e:	40 20       	and	r4, r0
     440:	7c 00       	.word	0x007c	; ????
     442:	1c 20       	and	r1, r12
     444:	40 20       	and	r4, r0
     446:	1c 00       	.word	0x001c	; ????
     448:	3c 40       	sbci	r19, 0x0C	; 12
     44a:	30 40       	sbci	r19, 0x00	; 0
     44c:	3c 00       	.word	0x003c	; ????
     44e:	44 28       	or	r4, r4
     450:	10 28       	or	r1, r0
     452:	44 00       	.word	0x0044	; ????
     454:	1c a0       	ldd	r1, Y+36	; 0x24
     456:	a0 a0       	ldd	r10, Z+32	; 0x20
     458:	7c 00       	.word	0x007c	; ????
     45a:	44 64       	ori	r20, 0x44	; 68
     45c:	54 4c       	sbci	r21, 0xC4	; 196
     45e:	44 00       	.word	0x0044	; ????
     460:	00 08       	sbc	r0, r0
     462:	36 41       	sbci	r19, 0x16	; 22
     464:	00 00       	nop
     466:	00 00       	nop
     468:	7f 00       	.word	0x007f	; ????
     46a:	00 00       	nop
     46c:	00 41       	sbci	r16, 0x10	; 16
     46e:	36 08       	sbc	r3, r6
     470:	00 00       	nop
     472:	10 08       	sbc	r1, r0
     474:	08 10       	cpse	r0, r8
     476:	08 00       	.word	0x0008	; ????
     478:	00 00       	nop
     47a:	00 00       	nop
     47c:	00 00       	nop
     47e:	20 54       	subi	r18, 0x40	; 64
     480:	54 d4       	rcall	.+2216   	; 0xd2a <LCD_menu_handle+0x274>
     482:	78 00       	.word	0x0078	; ????
     484:	38 44       	sbci	r19, 0x48	; 72
     486:	46 45       	sbci	r20, 0x56	; 86
     488:	20 00       	.word	0x0020	; ????
     48a:	38 54       	subi	r19, 0x48	; 72
     48c:	54 d4       	rcall	.+2216   	; 0xd36 <LCD_menu_handle+0x280>
     48e:	18 00       	.word	0x0018	; ????
     490:	00 49       	sbci	r16, 0x90	; 144
     492:	7f 44       	sbci	r23, 0x4F	; 79
     494:	00 00       	nop
     496:	7c 08       	sbc	r7, r12
     498:	06 05       	cpc	r16, r6
     49a:	78 00       	.word	0x0078	; ????
     49c:	38 44       	sbci	r19, 0x48	; 72
     49e:	46 45       	sbci	r20, 0x56	; 86
     4a0:	38 00       	.word	0x0038	; ????
     4a2:	48 54       	subi	r20, 0x48	; 72
     4a4:	56 55       	subi	r21, 0x56	; 86
     4a6:	20 00       	.word	0x0020	; ????
     4a8:	44 64       	ori	r20, 0x44	; 68
     4aa:	56 4d       	sbci	r21, 0xD6	; 214
     4ac:	44 00       	.word	0x0044	; ????
     4ae:	44 64       	ori	r20, 0x44	; 68
     4b0:	55 4c       	sbci	r21, 0xC5	; 197
     4b2:	44 00       	.word	0x0044	; ????
     4b4:	7e 11       	cpse	r23, r14
     4b6:	11 91       	ld	r17, Z+
     4b8:	7e 00       	.word	0x007e	; ????
     4ba:	3c 42       	sbci	r19, 0x2C	; 44
     4bc:	46 43       	sbci	r20, 0x36	; 54
     4be:	24 00       	.word	0x0024	; ????
     4c0:	7f 49       	sbci	r23, 0x9F	; 159
     4c2:	49 c9       	rjmp	.-3438   	; 0xfffff756 <__eeprom_end+0xff7ef756>
     4c4:	41 00       	.word	0x0041	; ????
     4c6:	7f 50       	subi	r23, 0x0F	; 15
     4c8:	48 44       	sbci	r20, 0x48	; 72
     4ca:	40 00       	.word	0x0040	; ????
     4cc:	7e 04       	cpc	r7, r14
     4ce:	0b 10       	cpse	r0, r11
     4d0:	7e 00       	.word	0x007e	; ????
     4d2:	3c 42       	sbci	r19, 0x2C	; 44
     4d4:	46 43       	sbci	r20, 0x36	; 54
     4d6:	3c 00       	.word	0x003c	; ????
     4d8:	4c 52       	subi	r20, 0x2C	; 44
     4da:	56 53       	subi	r21, 0x36	; 54
     4dc:	22 00       	.word	0x0022	; ????
     4de:	42 66       	ori	r20, 0x62	; 98
     4e0:	53 4a       	sbci	r21, 0xA3	; 163
     4e2:	46 00       	.word	0x0046	; ????
     4e4:	42 62       	ori	r20, 0x22	; 34
     4e6:	53 4a       	sbci	r21, 0xA3	; 163
     4e8:	46 00       	.word	0x0046	; ????
	...

0000053e <IMG_intro>:
	...
     5a6:	00 80 e0 ff 09 09 0f 08 08 08 08 08 08 08 08 08     ................
     5b6:	08 08 08 08 08 08 08 08 08 08 08 08 08 08 08 08     ................
     5c6:	08 08 08 08 08 08 08 08 08 f8 00 00 00 00 00 00     ................
     5d6:	00 00 40 48 48 48 48 48 c8 88 88 88 88 18 10 10     ..@HHHHH........
	...
     5f6:	00 80 e0 f8 fe ff ff ff 00 c0 70 98 c8 c8 e8 e8     ..........p.....
     606:	e8 e8 e8 c8 c8 88 08 08 08 08 08 08 08 08 88 c8     ................
     616:	c8 e8 e8 e8 e8 e8 c8 c8 88 18 30 e0 00 ff 00 00     ..........0.....
     626:	20 20 20 24 24 24 24 24 64 4c 48 48 d8 90 90 90        $$$$$dLHH....
     636:	31 21 21 21 00 00 00 00 00 00 00 00 00 00 00 00     1!!!............
     646:	00 00 60 78 7e 7f 7f 7f 7f 7f 7f 7f 7f c1 5e 7f     ..`x~.........^.
     656:	ff ff ff e3 e3 e3 ff ff ff 7f 5e 40 40 40 40 40     ..........^@@@@@
     666:	40 5e 7f ff ff ff e3 e3 e3 ff ff ff 7f 5e 40 c1     @^...........^@.
     676:	ff 7f 40 00 00 04 44 44 44 c4 84 84 84 88 88 08     ..@...DDD.......
     686:	18 10 10 31 21 61 40 40 00 00 00 00 00 00 00 00     ...1!a@@........
     696:	00 00 00 00 80 40 40 40 40 40 40 40 40 40 40 40     .....@@@@@@@@@@@
     6a6:	40 41 43 42 42 42 43 43 43 43 43 42 c2 02 02 02     @ACBBBCCCCCB....
     6b6:	82 82 82 82 82 82 82 82 82 83 83 83 83 83 82 82     ................
     6c6:	82 82 83 81 80 80 80 00 00 00 00 00 00 00 00 00     ................
     6d6:	00 00 01 01 01 81 81 81 03 02 02 02 00 00 00 00     ................
	...
     6ee:	3f 60 40 40 40 40 40 40 40 40 40 40 40 40 40 40     ?`@@@@@@@@@@@@@@
     6fe:	40 40 40 40 40 40 40 40 7f 00 00 00 00 00 04 24     @@@@@@@@.......$
     70e:	24 24 24 24 24 24 24 24 24 24 24 24 30 10 10 10     $$$$$$$$$$$$0...
     71e:	10 10 10 10 10 10 10 04 04 04 04 04 04 10 10 10     ................
     72e:	10 10 10 10 10 00 00 00                             ........

00000736 <__ctors_end>:
     736:	11 24       	eor	r1, r1
     738:	1f be       	out	0x3f, r1	; 63
     73a:	cf ef       	ldi	r28, 0xFF	; 255
     73c:	cd bf       	out	0x3d, r28	; 61
     73e:	df e3       	ldi	r29, 0x3F	; 63
     740:	de bf       	out	0x3e, r29	; 62
     742:	00 e0       	ldi	r16, 0x00	; 0
     744:	0c bf       	out	0x3c, r16	; 60

00000746 <__do_copy_data>:
     746:	11 e2       	ldi	r17, 0x21	; 33
     748:	a0 e0       	ldi	r26, 0x00	; 0
     74a:	b0 e2       	ldi	r27, 0x20	; 32
     74c:	e6 e6       	ldi	r30, 0x66	; 102
     74e:	f2 e2       	ldi	r31, 0x22	; 34
     750:	00 e0       	ldi	r16, 0x00	; 0
     752:	0b bf       	out	0x3b, r16	; 59
     754:	02 c0       	rjmp	.+4      	; 0x75a <__do_copy_data+0x14>
     756:	07 90       	elpm	r0, Z+
     758:	0d 92       	st	X+, r0
     75a:	a8 32       	cpi	r26, 0x28	; 40
     75c:	b1 07       	cpc	r27, r17
     75e:	d9 f7       	brne	.-10     	; 0x756 <__do_copy_data+0x10>

00000760 <__do_clear_bss>:
     760:	21 e2       	ldi	r18, 0x21	; 33
     762:	a8 e2       	ldi	r26, 0x28	; 40
     764:	b1 e2       	ldi	r27, 0x21	; 33
     766:	01 c0       	rjmp	.+2      	; 0x76a <.do_clear_bss_start>

00000768 <.do_clear_bss_loop>:
     768:	1d 92       	st	X+, r1

0000076a <.do_clear_bss_start>:
     76a:	ab 36       	cpi	r26, 0x6B	; 107
     76c:	b2 07       	cpc	r27, r18
     76e:	e1 f7       	brne	.-8      	; 0x768 <.do_clear_bss_loop>
     770:	65 d6       	rcall	.+3274   	; 0x143c <main>
     772:	0c 94 31 11 	jmp	0x2262	; 0x2262 <_exit>

00000776 <__bad_interrupt>:
     776:	44 cc       	rjmp	.-1912   	; 0x0 <__vectors>

00000778 <init_ADC>:
#include "Includes.h"

void init_ADC(void)
{
	ADCA.CTRLA= ADC_ENABLE_bm;
     778:	e0 e0       	ldi	r30, 0x00	; 0
     77a:	f2 e0       	ldi	r31, 0x02	; 2
     77c:	81 e0       	ldi	r24, 0x01	; 1
     77e:	80 83       	st	Z, r24
	//ADCB.CTRLB= ADC_CONMODE_bm;//|//ADC_IMPMODE_bm;//|ADC_CURRLIMIT_MED_gc;
	ADCA.REFCTRL = ADC_REFSEL_AREFA_gc|ADC_RESOLUTION_12BIT_gc;
     780:	90 e2       	ldi	r25, 0x20	; 32
     782:	92 83       	std	Z+2, r25	; 0x02
	//|ADC_RESOLUTION_LEFT12BIT_gc
	ADCA.PRESCALER = ADC_PRESCALER_DIV512_gc;
     784:	27 e0       	ldi	r18, 0x07	; 7
     786:	24 83       	std	Z+4, r18	; 0x04
	
	ADCA.CH0.CTRL = ADC_CH_GAIN_1X_gc | ADC_CH_INPUTMODE_SINGLEENDED_gc;
     788:	80 a3       	std	Z+32, r24	; 0x20
	ADCA.CH0.MUXCTRL = ADC_CH_MUXPOS_PIN1_gc;//|ADC_CH_MUXNEG_PIN3_gc; //ADC 1 pin
     78a:	28 e0       	ldi	r18, 0x08	; 8
     78c:	21 a3       	std	Z+33, r18	; 0x21
	ADCA.CH0.INTCTRL = 0 ; // No interrupt
     78e:	12 a2       	std	Z+34, r1	; 0x22
	
	ADCA.CH1.CTRL = ADC_CH_GAIN_1X_gc | ADC_CH_INPUTMODE_SINGLEENDED_gc;
     790:	80 a7       	std	Z+40, r24	; 0x28
	ADCA.CH1.MUXCTRL = ADC_CH_MUXPOS_PIN2_gc;//ADC 2 pin
     792:	20 e1       	ldi	r18, 0x10	; 16
     794:	21 a7       	std	Z+41, r18	; 0x29
	ADCA.CH1.INTCTRL = 0 ; // No interrupt
     796:	12 a6       	std	Z+42, r1	; 0x2a
	
	ADCA.CH2.CTRL = ADC_CH_GAIN_1X_gc | ADC_CH_INPUTMODE_SINGLEENDED_gc;
     798:	80 ab       	std	Z+48, r24	; 0x30
	ADCA.CH2.MUXCTRL = ADC_CH_MUXPOS_PIN3_gc;//ADC 3 pin
     79a:	28 e1       	ldi	r18, 0x18	; 24
     79c:	21 ab       	std	Z+49, r18	; 0x31
	ADCA.CH2.INTCTRL = 0 ; // No interrupt
     79e:	12 aa       	std	Z+50, r1	; 0x32
	
	ADCA.CH3.CTRL = ADC_CH_GAIN_1X_gc | ADC_CH_INPUTMODE_SINGLEENDED_gc;
     7a0:	80 af       	std	Z+56, r24	; 0x38
	ADCA.CH3.MUXCTRL = ADC_CH_MUXPOS_PIN4_gc;//ADC 3 pin
     7a2:	91 af       	std	Z+57, r25	; 0x39
	ADCA.CH3.INTCTRL = 0 ; // No interrupt
     7a4:	12 ae       	std	Z+58, r1	; 0x3a
     7a6:	08 95       	ret

000007a8 <ReadADC>:

}
uint16_t ReadADC(uint8_t Device)
{
	switch(Device)
     7a8:	82 30       	cpi	r24, 0x02	; 2
     7aa:	49 f0       	breq	.+18     	; 0x7be <ReadADC+0x16>
     7ac:	18 f4       	brcc	.+6      	; 0x7b4 <ReadADC+0xc>
     7ae:	81 30       	cpi	r24, 0x01	; 1
     7b0:	01 f1       	breq	.+64     	; 0x7f2 <ReadADC+0x4a>
     7b2:	39 c0       	rjmp	.+114    	; 0x826 <ReadADC+0x7e>
     7b4:	83 30       	cpi	r24, 0x03	; 3
     7b6:	81 f0       	breq	.+32     	; 0x7d8 <ReadADC+0x30>
     7b8:	84 30       	cpi	r24, 0x04	; 4
     7ba:	41 f1       	breq	.+80     	; 0x80c <ReadADC+0x64>
     7bc:	34 c0       	rjmp	.+104    	; 0x826 <ReadADC+0x7e>
	{
		case MEAS_SHARP_RIGHT:
		ADCA.CH2.CTRL |= ADC_CH_START_bm; // Start conversion
     7be:	e0 e0       	ldi	r30, 0x00	; 0
     7c0:	f2 e0       	ldi	r31, 0x02	; 2
     7c2:	80 a9       	ldd	r24, Z+48	; 0x30
     7c4:	80 68       	ori	r24, 0x80	; 128
     7c6:	80 ab       	std	Z+48, r24	; 0x30
		while (ADCA.INTFLAGS==0) ; // Wait for complete
     7c8:	86 81       	ldd	r24, Z+6	; 0x06
     7ca:	88 23       	and	r24, r24
     7cc:	e9 f3       	breq	.-6      	; 0x7c8 <ReadADC+0x20>
		return ADCA.CH2RES ;
     7ce:	e0 e0       	ldi	r30, 0x00	; 0
     7d0:	f2 e0       	ldi	r31, 0x02	; 2
     7d2:	84 89       	ldd	r24, Z+20	; 0x14
     7d4:	95 89       	ldd	r25, Z+21	; 0x15
     7d6:	08 95       	ret
		break;
		
		case MEAS_SHARP_FRONT:
		ADCA.CH1.CTRL |= ADC_CH_START_bm; // Start conversion
     7d8:	e0 e0       	ldi	r30, 0x00	; 0
     7da:	f2 e0       	ldi	r31, 0x02	; 2
     7dc:	80 a5       	ldd	r24, Z+40	; 0x28
     7de:	80 68       	ori	r24, 0x80	; 128
     7e0:	80 a7       	std	Z+40, r24	; 0x28
		while (ADCA.INTFLAGS==0) ; // Wait for complete
     7e2:	86 81       	ldd	r24, Z+6	; 0x06
     7e4:	88 23       	and	r24, r24
     7e6:	e9 f3       	breq	.-6      	; 0x7e2 <ReadADC+0x3a>
		return ADCA.CH1RES ;
     7e8:	e0 e0       	ldi	r30, 0x00	; 0
     7ea:	f2 e0       	ldi	r31, 0x02	; 2
     7ec:	82 89       	ldd	r24, Z+18	; 0x12
     7ee:	93 89       	ldd	r25, Z+19	; 0x13
     7f0:	08 95       	ret
		break;
		
		case MEAS_SHARP_LEFT:
		ADCA.CH0.CTRL |= ADC_CH_START_bm; // Start conversion
     7f2:	e0 e0       	ldi	r30, 0x00	; 0
     7f4:	f2 e0       	ldi	r31, 0x02	; 2
     7f6:	80 a1       	ldd	r24, Z+32	; 0x20
     7f8:	80 68       	ori	r24, 0x80	; 128
     7fa:	80 a3       	std	Z+32, r24	; 0x20
		while (ADCA.INTFLAGS==0) ; // Wait for complete
     7fc:	86 81       	ldd	r24, Z+6	; 0x06
     7fe:	88 23       	and	r24, r24
     800:	e9 f3       	breq	.-6      	; 0x7fc <ReadADC+0x54>
		return ADCA.CH0RES ;
     802:	e0 e0       	ldi	r30, 0x00	; 0
     804:	f2 e0       	ldi	r31, 0x02	; 2
     806:	80 89       	ldd	r24, Z+16	; 0x10
     808:	91 89       	ldd	r25, Z+17	; 0x11
     80a:	08 95       	ret
		break;
		
		case MEAS_BAT_V:
		ADCA.CH3.CTRL |= ADC_CH_START_bm; // Start conversion
     80c:	e0 e0       	ldi	r30, 0x00	; 0
     80e:	f2 e0       	ldi	r31, 0x02	; 2
     810:	80 ad       	ldd	r24, Z+56	; 0x38
     812:	80 68       	ori	r24, 0x80	; 128
     814:	80 af       	std	Z+56, r24	; 0x38
		while (ADCA.INTFLAGS==0) ; // Wait for complete
     816:	86 81       	ldd	r24, Z+6	; 0x06
     818:	88 23       	and	r24, r24
     81a:	e9 f3       	breq	.-6      	; 0x816 <ReadADC+0x6e>
		return ADCA.CH3RES ;
     81c:	e0 e0       	ldi	r30, 0x00	; 0
     81e:	f2 e0       	ldi	r31, 0x02	; 2
     820:	86 89       	ldd	r24, Z+22	; 0x16
     822:	97 89       	ldd	r25, Z+23	; 0x17
     824:	08 95       	ret
		break;
		
		default:
		return 0;
     826:	80 e0       	ldi	r24, 0x00	; 0
     828:	90 e0       	ldi	r25, 0x00	; 0
		break;
	}
}
     82a:	08 95       	ret

0000082c <init_SPI_LCD>:



void init_SPI_LCD(void)
{
	PORTE.DIRSET = PIN4_bm|PIN5_bm|PIN7_bm;
     82c:	e0 e8       	ldi	r30, 0x80	; 128
     82e:	f6 e0       	ldi	r31, 0x06	; 6
     830:	80 eb       	ldi	r24, 0xB0	; 176
     832:	81 83       	std	Z+1, r24	; 0x01
	PORTE.DIRCLR = PIN6_bm;
     834:	80 e4       	ldi	r24, 0x40	; 64
     836:	82 83       	std	Z+2, r24	; 0x02
	SPIE.CTRL = SPI_MODE_0_gc|SPI_ENABLE_bm|SPI_PRESCALER_DIV16_gc|SPI_MASTER_bm;
     838:	81 e5       	ldi	r24, 0x51	; 81
     83a:	80 93 c0 0a 	sts	0x0AC0, r24
     83e:	08 95       	ret

00000840 <LCD_write_byte>:

// Wysy≥a jeden bajt do LCD z uøyciem sprzÍtowego SPI
// c_d: LCD_DATA|LCD_CMD
void LCD_write_byte(unsigned char c_d, unsigned char data )
{
	LCD_SS_OFF//LCD_CE_CLR
     840:	90 e1       	ldi	r25, 0x10	; 16
     842:	e0 e8       	ldi	r30, 0x80	; 128
     844:	f6 e0       	ldi	r31, 0x06	; 6
     846:	96 83       	std	Z+6, r25	; 0x06
	if(c_d)
     848:	88 23       	and	r24, r24
     84a:	19 f0       	breq	.+6      	; 0x852 <LCD_write_byte+0x12>
	LCD_DC_ON
     84c:	88 e0       	ldi	r24, 0x08	; 8
     84e:	85 83       	std	Z+5, r24	; 0x05
     850:	04 c0       	rjmp	.+8      	; 0x85a <LCD_write_byte+0x1a>
	else
	LCD_DC_OFF
     852:	88 e0       	ldi	r24, 0x08	; 8
     854:	e0 e8       	ldi	r30, 0x80	; 128
     856:	f6 e0       	ldi	r31, 0x06	; 6
     858:	86 83       	std	Z+6, r24	; 0x06
	SPIE.DATA = data;//SPDR = data;
     85a:	e0 ec       	ldi	r30, 0xC0	; 192
     85c:	fa e0       	ldi	r31, 0x0A	; 10
     85e:	63 83       	std	Z+3, r22	; 0x03
	while(!(SPIE.STATUS & SPI_IF_bm));//while(!(SPSR & (1<<SPIF)));
     860:	82 81       	ldd	r24, Z+2	; 0x02
     862:	88 23       	and	r24, r24
     864:	ec f7       	brge	.-6      	; 0x860 <LCD_write_byte+0x20>
	LCD_SS_ON
     866:	80 e1       	ldi	r24, 0x10	; 16
     868:	e0 e8       	ldi	r30, 0x80	; 128
     86a:	f6 e0       	ldi	r31, 0x06	; 6
     86c:	85 83       	std	Z+5, r24	; 0x05
     86e:	08 95       	ret

00000870 <LCD_image>:
}

// Wyúwietla obrazek
// img, x0,y0,width, height/8
void LCD_image(unsigned char s[],char  x, char y, char w, char h)
{
     870:	4f 92       	push	r4
     872:	5f 92       	push	r5
     874:	6f 92       	push	r6
     876:	7f 92       	push	r7
     878:	8f 92       	push	r8
     87a:	9f 92       	push	r9
     87c:	af 92       	push	r10
     87e:	bf 92       	push	r11
     880:	cf 92       	push	r12
     882:	df 92       	push	r13
     884:	ef 92       	push	r14
     886:	ff 92       	push	r15
     888:	0f 93       	push	r16
     88a:	1f 93       	push	r17
     88c:	cf 93       	push	r28
     88e:	df 93       	push	r29
     890:	4c 01       	movw	r8, r24
     892:	54 2e       	mov	r5, r20
	unsigned int i,j,k;
	
	for(i=0,j=0,k=0; i<h; i++)
     894:	60 2e       	mov	r6, r16
     896:	71 2c       	mov	r7, r1
     898:	61 14       	cp	r6, r1
     89a:	71 04       	cpc	r7, r1
     89c:	51 f1       	breq	.+84     	; 0x8f2 <LCD_image+0x82>
     89e:	a1 2c       	mov	r10, r1
     8a0:	b1 2c       	mov	r11, r1
     8a2:	c1 2c       	mov	r12, r1
     8a4:	d1 2c       	mov	r13, r1
	{
		LCD_write_byte(LCD_CMD, 0x40|(i+y));
		LCD_write_byte(LCD_CMD, 0x80|(x));
     8a6:	60 68       	ori	r22, 0x80	; 128
     8a8:	46 2e       	mov	r4, r22

		for(j=0; j<w ; j++,k++)
     8aa:	02 2f       	mov	r16, r18
     8ac:	10 e0       	ldi	r17, 0x00	; 0
     8ae:	65 2d       	mov	r22, r5
     8b0:	6c 0d       	add	r22, r12
{
	unsigned int i,j,k;
	
	for(i=0,j=0,k=0; i<h; i++)
	{
		LCD_write_byte(LCD_CMD, 0x40|(i+y));
     8b2:	60 64       	ori	r22, 0x40	; 64
     8b4:	80 e0       	ldi	r24, 0x00	; 0
     8b6:	c4 df       	rcall	.-120    	; 0x840 <LCD_write_byte>
		LCD_write_byte(LCD_CMD, 0x80|(x));
     8b8:	64 2d       	mov	r22, r4
     8ba:	80 e0       	ldi	r24, 0x00	; 0
     8bc:	c1 df       	rcall	.-126    	; 0x840 <LCD_write_byte>

		for(j=0; j<w ; j++,k++)
     8be:	01 15       	cp	r16, r1
     8c0:	11 05       	cpc	r17, r1
     8c2:	89 f0       	breq	.+34     	; 0x8e6 <LCD_image+0x76>
     8c4:	c0 e0       	ldi	r28, 0x00	; 0
     8c6:	d0 e0       	ldi	r29, 0x00	; 0
     8c8:	74 01       	movw	r14, r8
     8ca:	ea 0c       	add	r14, r10
     8cc:	fb 1c       	adc	r15, r11
     8ce:	f7 01       	movw	r30, r14
     8d0:	ec 0f       	add	r30, r28
     8d2:	fd 1f       	adc	r31, r29
		LCD_write_byte(LCD_DATA, pgm_read_byte(&s[k]));
     8d4:	64 91       	lpm	r22, Z
     8d6:	81 e0       	ldi	r24, 0x01	; 1
     8d8:	b3 df       	rcall	.-154    	; 0x840 <LCD_write_byte>
	for(i=0,j=0,k=0; i<h; i++)
	{
		LCD_write_byte(LCD_CMD, 0x40|(i+y));
		LCD_write_byte(LCD_CMD, 0x80|(x));

		for(j=0; j<w ; j++,k++)
     8da:	21 96       	adiw	r28, 0x01	; 1
     8dc:	c0 17       	cp	r28, r16
     8de:	d1 07       	cpc	r29, r17
     8e0:	b0 f3       	brcs	.-20     	; 0x8ce <LCD_image+0x5e>
     8e2:	a0 0e       	add	r10, r16
     8e4:	b1 1e       	adc	r11, r17
// img, x0,y0,width, height/8
void LCD_image(unsigned char s[],char  x, char y, char w, char h)
{
	unsigned int i,j,k;
	
	for(i=0,j=0,k=0; i<h; i++)
     8e6:	8f ef       	ldi	r24, 0xFF	; 255
     8e8:	c8 1a       	sub	r12, r24
     8ea:	d8 0a       	sbc	r13, r24
     8ec:	c6 14       	cp	r12, r6
     8ee:	d7 04       	cpc	r13, r7
     8f0:	f0 f2       	brcs	.-68     	; 0x8ae <LCD_image+0x3e>
		LCD_write_byte(LCD_CMD, 0x80|(x));

		for(j=0; j<w ; j++,k++)
		LCD_write_byte(LCD_DATA, pgm_read_byte(&s[k]));
	}
}
     8f2:	df 91       	pop	r29
     8f4:	cf 91       	pop	r28
     8f6:	1f 91       	pop	r17
     8f8:	0f 91       	pop	r16
     8fa:	ff 90       	pop	r15
     8fc:	ef 90       	pop	r14
     8fe:	df 90       	pop	r13
     900:	cf 90       	pop	r12
     902:	bf 90       	pop	r11
     904:	af 90       	pop	r10
     906:	9f 90       	pop	r9
     908:	8f 90       	pop	r8
     90a:	7f 90       	pop	r7
     90c:	6f 90       	pop	r6
     90e:	5f 90       	pop	r5
     910:	4f 90       	pop	r4
     912:	08 95       	ret

00000914 <LCD_clear>:

void LCD_clear(void)
{
     914:	1f 93       	push	r17
     916:	cf 93       	push	r28
     918:	df 93       	push	r29
	unsigned char  i,j;
	
	LCD_HOME
     91a:	60 e4       	ldi	r22, 0x40	; 64
     91c:	80 e0       	ldi	r24, 0x00	; 0
     91e:	90 df       	rcall	.-224    	; 0x840 <LCD_write_byte>
     920:	60 e8       	ldi	r22, 0x80	; 128
     922:	80 e0       	ldi	r24, 0x00	; 0
     924:	8d df       	rcall	.-230    	; 0x840 <LCD_write_byte>
	
	for(i=0; i<LCD_Y; i++)
     926:	d0 e0       	ldi	r29, 0x00	; 0
	{
		LCD_GOTO(0, i)
     928:	14 e5       	ldi	r17, 0x54	; 84
     92a:	6d 2f       	mov	r22, r29
     92c:	60 64       	ori	r22, 0x40	; 64
     92e:	80 e0       	ldi	r24, 0x00	; 0
     930:	87 df       	rcall	.-242    	; 0x840 <LCD_write_byte>
     932:	60 e8       	ldi	r22, 0x80	; 128
     934:	80 e0       	ldi	r24, 0x00	; 0
     936:	84 df       	rcall	.-248    	; 0x840 <LCD_write_byte>
     938:	c1 2f       	mov	r28, r17
		for(j=0; j<LCD_X; j++)
		LCD_write_byte(LCD_DATA, 0x00);
     93a:	60 e0       	ldi	r22, 0x00	; 0
     93c:	81 e0       	ldi	r24, 0x01	; 1
     93e:	80 df       	rcall	.-256    	; 0x840 <LCD_write_byte>
     940:	c1 50       	subi	r28, 0x01	; 1
	LCD_HOME
	
	for(i=0; i<LCD_Y; i++)
	{
		LCD_GOTO(0, i)
		for(j=0; j<LCD_X; j++)
     942:	d9 f7       	brne	.-10     	; 0x93a <LCD_clear+0x26>
{
	unsigned char  i,j;
	
	LCD_HOME
	
	for(i=0; i<LCD_Y; i++)
     944:	df 5f       	subi	r29, 0xFF	; 255
     946:	d6 30       	cpi	r29, 0x06	; 6
     948:	81 f7       	brne	.-32     	; 0x92a <LCD_clear+0x16>
		LCD_GOTO(0, i)
		for(j=0; j<LCD_X; j++)
		LCD_write_byte(LCD_DATA, 0x00);
	}

	LCD_HOME
     94a:	60 e4       	ldi	r22, 0x40	; 64
     94c:	80 e0       	ldi	r24, 0x00	; 0
     94e:	78 df       	rcall	.-272    	; 0x840 <LCD_write_byte>
     950:	60 e8       	ldi	r22, 0x80	; 128
     952:	80 e0       	ldi	r24, 0x00	; 0
     954:	75 df       	rcall	.-278    	; 0x840 <LCD_write_byte>
}
     956:	df 91       	pop	r29
     958:	cf 91       	pop	r28
     95a:	1f 91       	pop	r17
     95c:	08 95       	ret

0000095e <LCD_text>:

void LCD_text(char s[], unsigned char x, unsigned char y)
{
     95e:	bf 92       	push	r11
     960:	cf 92       	push	r12
     962:	df 92       	push	r13
     964:	ef 92       	push	r14
     966:	ff 92       	push	r15
     968:	0f 93       	push	r16
     96a:	1f 93       	push	r17
     96c:	cf 93       	push	r28
     96e:	df 93       	push	r29
     970:	cd b7       	in	r28, 0x3d	; 61
     972:	de b7       	in	r29, 0x3e	; 62
     974:	62 97       	sbiw	r28, 0x12	; 18
     976:	cd bf       	out	0x3d, r28	; 61
     978:	de bf       	out	0x3e, r29	; 62
     97a:	7c 01       	movw	r14, r24
     97c:	16 2f       	mov	r17, r22
	unsigned int c,j;
	unsigned char i,k;

	// Kody polskich literek z ogonkami
	char pl[] = {'π','Ê','Í','≥','Ò','Û','ú','ü','ø','•','∆',' ','£','—','”','å','è','Ø'};
     97e:	82 e1       	ldi	r24, 0x12	; 18
     980:	ee e0       	ldi	r30, 0x0E	; 14
     982:	f0 e2       	ldi	r31, 0x20	; 32
     984:	de 01       	movw	r26, r28
     986:	11 96       	adiw	r26, 0x01	; 1
     988:	01 90       	ld	r0, Z+
     98a:	0d 92       	st	X+, r0
     98c:	8a 95       	dec	r24
     98e:	e1 f7       	brne	.-8      	; 0x988 <LCD_text+0x2a>
	
	// Ustawia po≥oøenia pierwszej litery tekstu na ekranie LCD
	LCD_write_byte(LCD_CMD, LCD_SETY|(y));
     990:	64 2f       	mov	r22, r20
     992:	60 64       	ori	r22, 0x40	; 64
     994:	80 e0       	ldi	r24, 0x00	; 0
     996:	54 df       	rcall	.-344    	; 0x840 <LCD_write_byte>
	LCD_write_byte(LCD_CMD, LCD_SETX|(x));
     998:	61 2f       	mov	r22, r17
     99a:	60 68       	ori	r22, 0x80	; 128
     99c:	80 e0       	ldi	r24, 0x00	; 0
     99e:	50 df       	rcall	.-352    	; 0x840 <LCD_write_byte>

	// Rysuje znak po znaku
	for(k=0; (c = s[k]); k++)
     9a0:	f7 01       	movw	r30, r14
     9a2:	40 81       	ld	r20, Z
     9a4:	50 e0       	ldi	r21, 0x00	; 0
     9a6:	41 15       	cp	r20, r1
     9a8:	51 05       	cpc	r21, r1
     9aa:	d1 f1       	breq	.+116    	; 0xa20 <LCD_text+0xc2>
     9ac:	b1 2c       	mov	r11, r1
     9ae:	29 c0       	rjmp	.+82     	; 0xa02 <LCD_text+0xa4>
	{
		// Dopasowuje kody znakÛw z ogonkami
		for(i=0; (i<18) && (pl[i]!=c); i++) ;
     9b0:	8f 5f       	subi	r24, 0xFF	; 255
     9b2:	82 31       	cpi	r24, 0x12	; 18
     9b4:	31 f0       	breq	.+12     	; 0x9c2 <LCD_text+0x64>
     9b6:	21 91       	ld	r18, Z+
     9b8:	30 e0       	ldi	r19, 0x00	; 0
     9ba:	24 17       	cp	r18, r20
     9bc:	35 07       	cpc	r19, r21
     9be:	c1 f7       	brne	.-16     	; 0x9b0 <LCD_text+0x52>
     9c0:	2a c0       	rjmp	.+84     	; 0xa16 <LCD_text+0xb8>
		if(i<18) c= 0x80+i;

		// Kopiuje jeden znak(6x8) z FLASH do pamiÍci obrazu LCD
		for(i=0, j=(c-32)*6; i<6; i++,j++)
     9c2:	6a 01       	movw	r12, r20
     9c4:	cc 0c       	add	r12, r12
     9c6:	dd 1c       	adc	r13, r13
     9c8:	4c 0d       	add	r20, r12
     9ca:	5d 1d       	adc	r21, r13
     9cc:	44 0f       	add	r20, r20
     9ce:	55 1f       	adc	r21, r21
     9d0:	8a 01       	movw	r16, r20
     9d2:	02 58       	subi	r16, 0x82	; 130
     9d4:	1e 4f       	sbci	r17, 0xFE	; 254
     9d6:	ca 01       	movw	r24, r20
     9d8:	8c 57       	subi	r24, 0x7C	; 124
     9da:	9e 4f       	sbci	r25, 0xFE	; 254
     9dc:	6c 01       	movw	r12, r24
		LCD_write_byte(LCD_DATA, pgm_read_byte(&font[j]));
     9de:	f8 01       	movw	r30, r16
     9e0:	64 91       	lpm	r22, Z
     9e2:	81 e0       	ldi	r24, 0x01	; 1
     9e4:	2d df       	rcall	.-422    	; 0x840 <LCD_write_byte>
     9e6:	0f 5f       	subi	r16, 0xFF	; 255
     9e8:	1f 4f       	sbci	r17, 0xFF	; 255
		// Dopasowuje kody znakÛw z ogonkami
		for(i=0; (i<18) && (pl[i]!=c); i++) ;
		if(i<18) c= 0x80+i;

		// Kopiuje jeden znak(6x8) z FLASH do pamiÍci obrazu LCD
		for(i=0, j=(c-32)*6; i<6; i++,j++)
     9ea:	0c 15       	cp	r16, r12
     9ec:	1d 05       	cpc	r17, r13
     9ee:	b9 f7       	brne	.-18     	; 0x9de <LCD_text+0x80>
	// Ustawia po≥oøenia pierwszej litery tekstu na ekranie LCD
	LCD_write_byte(LCD_CMD, LCD_SETY|(y));
	LCD_write_byte(LCD_CMD, LCD_SETX|(x));

	// Rysuje znak po znaku
	for(k=0; (c = s[k]); k++)
     9f0:	b3 94       	inc	r11
     9f2:	f7 01       	movw	r30, r14
     9f4:	eb 0d       	add	r30, r11
     9f6:	f1 1d       	adc	r31, r1
     9f8:	40 81       	ld	r20, Z
     9fa:	50 e0       	ldi	r21, 0x00	; 0
     9fc:	41 15       	cp	r20, r1
     9fe:	51 05       	cpc	r21, r1
     a00:	79 f0       	breq	.+30     	; 0xa20 <LCD_text+0xc2>
	{
		// Dopasowuje kody znakÛw z ogonkami
		for(i=0; (i<18) && (pl[i]!=c); i++) ;
     a02:	89 81       	ldd	r24, Y+1	; 0x01
     a04:	90 e0       	ldi	r25, 0x00	; 0
     a06:	84 17       	cp	r24, r20
     a08:	95 07       	cpc	r25, r21
     a0a:	21 f0       	breq	.+8      	; 0xa14 <LCD_text+0xb6>
     a0c:	fe 01       	movw	r30, r28
     a0e:	32 96       	adiw	r30, 0x02	; 2
     a10:	81 e0       	ldi	r24, 0x01	; 1
     a12:	d1 cf       	rjmp	.-94     	; 0x9b6 <LCD_text+0x58>
     a14:	80 e0       	ldi	r24, 0x00	; 0
		if(i<18) c= 0x80+i;
     a16:	48 2f       	mov	r20, r24
     a18:	50 e0       	ldi	r21, 0x00	; 0
     a1a:	40 58       	subi	r20, 0x80	; 128
     a1c:	5f 4f       	sbci	r21, 0xFF	; 255
     a1e:	d1 cf       	rjmp	.-94     	; 0x9c2 <LCD_text+0x64>

		// Kopiuje jeden znak(6x8) z FLASH do pamiÍci obrazu LCD
		for(i=0, j=(c-32)*6; i<6; i++,j++)
		LCD_write_byte(LCD_DATA, pgm_read_byte(&font[j]));
	}
}
     a20:	62 96       	adiw	r28, 0x12	; 18
     a22:	cd bf       	out	0x3d, r28	; 61
     a24:	de bf       	out	0x3e, r29	; 62
     a26:	df 91       	pop	r29
     a28:	cf 91       	pop	r28
     a2a:	1f 91       	pop	r17
     a2c:	0f 91       	pop	r16
     a2e:	ff 90       	pop	r15
     a30:	ef 90       	pop	r14
     a32:	df 90       	pop	r13
     a34:	cf 90       	pop	r12
     a36:	bf 90       	pop	r11
     a38:	08 95       	ret

00000a3a <LCD_menu_print>:

void LCD_menu_print(void)
{
	LCD_text("1.CH MODE", 6, 0);
     a3a:	40 e0       	ldi	r20, 0x00	; 0
     a3c:	66 e0       	ldi	r22, 0x06	; 6
     a3e:	80 e2       	ldi	r24, 0x20	; 32
     a40:	90 e2       	ldi	r25, 0x20	; 32
     a42:	8d df       	rcall	.-230    	; 0x95e <LCD_text>
	LCD_text("2.START STOP", 6, 1);
     a44:	41 e0       	ldi	r20, 0x01	; 1
     a46:	66 e0       	ldi	r22, 0x06	; 6
     a48:	8a e2       	ldi	r24, 0x2A	; 42
     a4a:	90 e2       	ldi	r25, 0x20	; 32
     a4c:	88 df       	rcall	.-240    	; 0x95e <LCD_text>
	LCD_text("3.TEST SENS", 6, 2);
     a4e:	42 e0       	ldi	r20, 0x02	; 2
     a50:	66 e0       	ldi	r22, 0x06	; 6
     a52:	87 e3       	ldi	r24, 0x37	; 55
     a54:	90 e2       	ldi	r25, 0x20	; 32
     a56:	83 df       	rcall	.-250    	; 0x95e <LCD_text>
	LCD_text("4.TOG LEDS", 6, 3);
     a58:	43 e0       	ldi	r20, 0x03	; 3
     a5a:	66 e0       	ldi	r22, 0x06	; 6
     a5c:	83 e4       	ldi	r24, 0x43	; 67
     a5e:	90 e2       	ldi	r25, 0x20	; 32
     a60:	7e df       	rcall	.-260    	; 0x95e <LCD_text>
	LCD_text("5.VOLTAGE", 6, 4);
     a62:	44 e0       	ldi	r20, 0x04	; 4
     a64:	66 e0       	ldi	r22, 0x06	; 6
     a66:	8e e4       	ldi	r24, 0x4E	; 78
     a68:	90 e2       	ldi	r25, 0x20	; 32
     a6a:	79 df       	rcall	.-270    	; 0x95e <LCD_text>
	LCD_text("6.TEST MOT", 6, 5);
     a6c:	45 e0       	ldi	r20, 0x05	; 5
     a6e:	66 e0       	ldi	r22, 0x06	; 6
     a70:	88 e5       	ldi	r24, 0x58	; 88
     a72:	90 e2       	ldi	r25, 0x20	; 32
     a74:	74 cf       	rjmp	.-280    	; 0x95e <LCD_text>
     a76:	08 95       	ret

00000a78 <LCD_menu_mode_print>:
}
void LCD_menu_mode_print(void)
{
	LCD_text("1.S.TORNADO", 6, 0);
     a78:	40 e0       	ldi	r20, 0x00	; 0
     a7a:	66 e0       	ldi	r22, 0x06	; 6
     a7c:	83 e6       	ldi	r24, 0x63	; 99
     a7e:	90 e2       	ldi	r25, 0x20	; 32
     a80:	6e df       	rcall	.-292    	; 0x95e <LCD_text>
	LCD_text("2.S.STANDARD", 6, 1);
     a82:	41 e0       	ldi	r20, 0x01	; 1
     a84:	66 e0       	ldi	r22, 0x06	; 6
     a86:	8f e6       	ldi	r24, 0x6F	; 111
     a88:	90 e2       	ldi	r25, 0x20	; 32
     a8a:	69 df       	rcall	.-302    	; 0x95e <LCD_text>
	LCD_text("3.S.LF", 6, 2);
     a8c:	42 e0       	ldi	r20, 0x02	; 2
     a8e:	66 e0       	ldi	r22, 0x06	; 6
     a90:	8c e7       	ldi	r24, 0x7C	; 124
     a92:	90 e2       	ldi	r25, 0x20	; 32
     a94:	64 df       	rcall	.-312    	; 0x95e <LCD_text>
	LCD_text("4.------", 6, 3);
     a96:	43 e0       	ldi	r20, 0x03	; 3
     a98:	66 e0       	ldi	r22, 0x06	; 6
     a9a:	83 e8       	ldi	r24, 0x83	; 131
     a9c:	90 e2       	ldi	r25, 0x20	; 32
     a9e:	5f df       	rcall	.-322    	; 0x95e <LCD_text>
	LCD_text("5.------", 6, 4);
     aa0:	44 e0       	ldi	r20, 0x04	; 4
     aa2:	66 e0       	ldi	r22, 0x06	; 6
     aa4:	8c e8       	ldi	r24, 0x8C	; 140
     aa6:	90 e2       	ldi	r25, 0x20	; 32
     aa8:	5a df       	rcall	.-332    	; 0x95e <LCD_text>
	LCD_text("6.---->>", 6, 5);
     aaa:	45 e0       	ldi	r20, 0x05	; 5
     aac:	66 e0       	ldi	r22, 0x06	; 6
     aae:	85 e9       	ldi	r24, 0x95	; 149
     ab0:	90 e2       	ldi	r25, 0x20	; 32
     ab2:	55 cf       	rjmp	.-342    	; 0x95e <LCD_text>
     ab4:	08 95       	ret

00000ab6 <LCD_menu_handle>:
}
void LCD_menu_handle(void)
{
     ab6:	cf 93       	push	r28
     ab8:	df 93       	push	r29
	if (BTN_s._1==1)
     aba:	80 91 5c 21 	lds	r24, 0x215C
     abe:	80 ff       	sbrs	r24, 0
     ac0:	26 c0       	rjmp	.+76     	; 0xb0e <LCD_menu_handle+0x58>
	{
		Menu_option_counter++;
     ac2:	80 91 5e 21 	lds	r24, 0x215E
     ac6:	8f 5f       	subi	r24, 0xFF	; 255
     ac8:	80 93 5e 21 	sts	0x215E, r24
		if (Menu_option_counter>5)Menu_option_counter=5;
     acc:	80 91 5e 21 	lds	r24, 0x215E
     ad0:	86 30       	cpi	r24, 0x06	; 6
     ad2:	1c f0       	brlt	.+6      	; 0xada <LCD_menu_handle+0x24>
     ad4:	85 e0       	ldi	r24, 0x05	; 5
     ad6:	80 93 5e 21 	sts	0x215E, r24
		LCD_clear();
     ada:	1c df       	rcall	.-456    	; 0x914 <LCD_clear>
		if(Menu_sub_flag==SUBMENU_MAIN)LCD_menu_print();
     adc:	80 91 32 21 	lds	r24, 0x2132
     ae0:	81 30       	cpi	r24, 0x01	; 1
     ae2:	11 f4       	brne	.+4      	; 0xae8 <LCD_menu_handle+0x32>
     ae4:	aa df       	rcall	.-172    	; 0xa3a <LCD_menu_print>
     ae6:	05 c0       	rjmp	.+10     	; 0xaf2 <LCD_menu_handle+0x3c>
		else if(Menu_sub_flag==SUBMENU_MODE) LCD_menu_mode_print();
     ae8:	80 91 32 21 	lds	r24, 0x2132
     aec:	82 30       	cpi	r24, 0x02	; 2
     aee:	09 f4       	brne	.+2      	; 0xaf2 <LCD_menu_handle+0x3c>
     af0:	c3 df       	rcall	.-122    	; 0xa78 <LCD_menu_mode_print>
		LCD_text(">", 0, Menu_option_counter);
     af2:	40 91 5e 21 	lds	r20, 0x215E
     af6:	60 e0       	ldi	r22, 0x00	; 0
     af8:	8c e9       	ldi	r24, 0x9C	; 156
     afa:	90 e2       	ldi	r25, 0x20	; 32
     afc:	30 df       	rcall	.-416    	; 0x95e <LCD_text>
		BUZZ_beep(10);
     afe:	8a e0       	ldi	r24, 0x0A	; 10
     b00:	90 e0       	ldi	r25, 0x00	; 0
     b02:	4a d3       	rcall	.+1684   	; 0x1198 <BUZZ_beep>
		BTN_s._1=0;
     b04:	80 91 5c 21 	lds	r24, 0x215C
     b08:	8e 7f       	andi	r24, 0xFE	; 254
     b0a:	80 93 5c 21 	sts	0x215C, r24
	}
	if (BTN_s._2==1)
     b0e:	80 91 5c 21 	lds	r24, 0x215C
     b12:	81 ff       	sbrs	r24, 1
     b14:	25 c0       	rjmp	.+74     	; 0xb60 <LCD_menu_handle+0xaa>
	{
		Menu_option_counter--;
     b16:	80 91 5e 21 	lds	r24, 0x215E
     b1a:	81 50       	subi	r24, 0x01	; 1
     b1c:	80 93 5e 21 	sts	0x215E, r24
		if (Menu_option_counter<0)Menu_option_counter=0;
     b20:	80 91 5e 21 	lds	r24, 0x215E
     b24:	88 23       	and	r24, r24
     b26:	14 f4       	brge	.+4      	; 0xb2c <LCD_menu_handle+0x76>
     b28:	10 92 5e 21 	sts	0x215E, r1
		LCD_clear();
     b2c:	f3 de       	rcall	.-538    	; 0x914 <LCD_clear>
		if(Menu_sub_flag==SUBMENU_MAIN)LCD_menu_print();
     b2e:	80 91 32 21 	lds	r24, 0x2132
     b32:	81 30       	cpi	r24, 0x01	; 1
     b34:	11 f4       	brne	.+4      	; 0xb3a <LCD_menu_handle+0x84>
     b36:	81 df       	rcall	.-254    	; 0xa3a <LCD_menu_print>
     b38:	05 c0       	rjmp	.+10     	; 0xb44 <LCD_menu_handle+0x8e>
		else if(Menu_sub_flag==SUBMENU_MODE) LCD_menu_mode_print();
     b3a:	80 91 32 21 	lds	r24, 0x2132
     b3e:	82 30       	cpi	r24, 0x02	; 2
     b40:	09 f4       	brne	.+2      	; 0xb44 <LCD_menu_handle+0x8e>
     b42:	9a df       	rcall	.-204    	; 0xa78 <LCD_menu_mode_print>
		LCD_text(">", 0, Menu_option_counter);
     b44:	40 91 5e 21 	lds	r20, 0x215E
     b48:	60 e0       	ldi	r22, 0x00	; 0
     b4a:	8c e9       	ldi	r24, 0x9C	; 156
     b4c:	90 e2       	ldi	r25, 0x20	; 32
     b4e:	07 df       	rcall	.-498    	; 0x95e <LCD_text>
		BUZZ_beep(10);
     b50:	8a e0       	ldi	r24, 0x0A	; 10
     b52:	90 e0       	ldi	r25, 0x00	; 0
     b54:	21 d3       	rcall	.+1602   	; 0x1198 <BUZZ_beep>
		BTN_s._2=0;
     b56:	80 91 5c 21 	lds	r24, 0x215C
     b5a:	8d 7f       	andi	r24, 0xFD	; 253
     b5c:	80 93 5c 21 	sts	0x215C, r24
	}
	
	if (BTN_s._3==1)
     b60:	80 91 5c 21 	lds	r24, 0x215C
     b64:	82 ff       	sbrs	r24, 2
     b66:	64 c1       	rjmp	.+712    	; 0xe30 <LCD_menu_handle+0x37a>
	{
		switch (Menu_sub_flag)
     b68:	80 91 32 21 	lds	r24, 0x2132
     b6c:	81 30       	cpi	r24, 0x01	; 1
     b6e:	21 f0       	breq	.+8      	; 0xb78 <LCD_menu_handle+0xc2>
     b70:	82 30       	cpi	r24, 0x02	; 2
     b72:	09 f4       	brne	.+2      	; 0xb76 <LCD_menu_handle+0xc0>
     b74:	1f c1       	rjmp	.+574    	; 0xdb4 <LCD_menu_handle+0x2fe>
     b76:	57 c1       	rjmp	.+686    	; 0xe26 <LCD_menu_handle+0x370>
		{
			case SUBMENU_MAIN :
			switch (Menu_option_counter)
     b78:	80 91 5e 21 	lds	r24, 0x215E
     b7c:	82 30       	cpi	r24, 0x02	; 2
     b7e:	41 f1       	breq	.+80     	; 0xbd0 <LCD_menu_handle+0x11a>
     b80:	2c f4       	brge	.+10     	; 0xb8c <LCD_menu_handle+0xd6>
     b82:	88 23       	and	r24, r24
     b84:	61 f0       	breq	.+24     	; 0xb9e <LCD_menu_handle+0xe8>
     b86:	81 30       	cpi	r24, 0x01	; 1
     b88:	b1 f0       	breq	.+44     	; 0xbb6 <LCD_menu_handle+0x100>
     b8a:	4d c1       	rjmp	.+666    	; 0xe26 <LCD_menu_handle+0x370>
     b8c:	84 30       	cpi	r24, 0x04	; 4
     b8e:	09 f4       	brne	.+2      	; 0xb92 <LCD_menu_handle+0xdc>
     b90:	e4 c0       	rjmp	.+456    	; 0xd5a <LCD_menu_handle+0x2a4>
     b92:	0c f4       	brge	.+2      	; 0xb96 <LCD_menu_handle+0xe0>
     b94:	dd c0       	rjmp	.+442    	; 0xd50 <LCD_menu_handle+0x29a>
     b96:	85 30       	cpi	r24, 0x05	; 5
     b98:	09 f4       	brne	.+2      	; 0xb9c <LCD_menu_handle+0xe6>
     b9a:	fc c0       	rjmp	.+504    	; 0xd94 <LCD_menu_handle+0x2de>
     b9c:	44 c1       	rjmp	.+648    	; 0xe26 <LCD_menu_handle+0x370>
			{
				case 0 :
				LCD_clear();
     b9e:	ba de       	rcall	.-652    	; 0x914 <LCD_clear>
				LCD_menu_mode_print();
     ba0:	6b df       	rcall	.-298    	; 0xa78 <LCD_menu_mode_print>
				LCD_text(">", 0, Menu_option_counter);
     ba2:	40 91 5e 21 	lds	r20, 0x215E
     ba6:	60 e0       	ldi	r22, 0x00	; 0
     ba8:	8c e9       	ldi	r24, 0x9C	; 156
     baa:	90 e2       	ldi	r25, 0x20	; 32
     bac:	d8 de       	rcall	.-592    	; 0x95e <LCD_text>
				Menu_sub_flag=SUBMENU_MODE;
     bae:	82 e0       	ldi	r24, 0x02	; 2
     bb0:	80 93 32 21 	sts	0x2132, r24
				break;
     bb4:	38 c1       	rjmp	.+624    	; 0xe26 <LCD_menu_handle+0x370>
				
				case 1 :// toggle start stop flag
				GP_FLAGS_s.START_STOP ^= 1 << 0;
     bb6:	90 91 42 21 	lds	r25, 0x2142
     bba:	90 95       	com	r25
     bbc:	80 91 42 21 	lds	r24, 0x2142
     bc0:	90 fb       	bst	r25, 0
     bc2:	80 f9       	bld	r24, 0
     bc4:	80 93 42 21 	sts	0x2142, r24
				BUZZ_beep(10);
     bc8:	8a e0       	ldi	r24, 0x0A	; 10
     bca:	90 e0       	ldi	r25, 0x00	; 0
     bcc:	e5 d2       	rcall	.+1482   	; 0x1198 <BUZZ_beep>
				break;
     bce:	2b c1       	rjmp	.+598    	; 0xe26 <LCD_menu_handle+0x370>
				
				case 2 :
				LCD_clear();
     bd0:	a1 de       	rcall	.-702    	; 0x914 <LCD_clear>
				while (BUTTON_4_CHECK == 0)
     bd2:	c0 e2       	ldi	r28, 0x20	; 32
     bd4:	d6 e0       	ldi	r29, 0x06	; 6
     bd6:	ae c0       	rjmp	.+348    	; 0xd34 <LCD_menu_handle+0x27e>
				{
					if (SENS_FLAG_s.LINE_LEFT==1)
     bd8:	80 91 5b 21 	lds	r24, 0x215B
     bdc:	84 ff       	sbrs	r24, 4
     bde:	14 c0       	rjmp	.+40     	; 0xc08 <LCD_menu_handle+0x152>
					{
						LCD_text("L.LINE", 0, 0);
     be0:	40 e0       	ldi	r20, 0x00	; 0
     be2:	60 e0       	ldi	r22, 0x00	; 0
     be4:	8e e9       	ldi	r24, 0x9E	; 158
     be6:	90 e2       	ldi	r25, 0x20	; 32
     be8:	ba de       	rcall	.-652    	; 0x95e <LCD_text>
						SENS_FLAG_s.LINE_LEFT=0;
     bea:	80 91 5b 21 	lds	r24, 0x215B
     bee:	8f 7e       	andi	r24, 0xEF	; 239
     bf0:	80 93 5b 21 	sts	0x215B, r24
	#else
		//round up by default
		__ticks_dc = (uint32_t)(ceil(fabs(__tmp)));
	#endif

	__builtin_avr_delay_cycles(__ticks_dc);
     bf4:	2f ef       	ldi	r18, 0xFF	; 255
     bf6:	89 e6       	ldi	r24, 0x69	; 105
     bf8:	98 e1       	ldi	r25, 0x18	; 24
     bfa:	21 50       	subi	r18, 0x01	; 1
     bfc:	80 40       	sbci	r24, 0x00	; 0
     bfe:	90 40       	sbci	r25, 0x00	; 0
     c00:	e1 f7       	brne	.-8      	; 0xbfa <LCD_menu_handle+0x144>
     c02:	00 c0       	rjmp	.+0      	; 0xc04 <LCD_menu_handle+0x14e>
     c04:	00 00       	nop
     c06:	05 c0       	rjmp	.+10     	; 0xc12 <LCD_menu_handle+0x15c>
						_delay_ms(250);
					}
					else LCD_text("      ", 0, 0);
     c08:	40 e0       	ldi	r20, 0x00	; 0
     c0a:	60 e0       	ldi	r22, 0x00	; 0
     c0c:	83 e0       	ldi	r24, 0x03	; 3
     c0e:	91 e2       	ldi	r25, 0x21	; 33
     c10:	a6 de       	rcall	.-692    	; 0x95e <LCD_text>
					
					if (SENS_FLAG_s.LINE_RIGHT==1)
     c12:	80 91 5b 21 	lds	r24, 0x215B
     c16:	85 ff       	sbrs	r24, 5
     c18:	14 c0       	rjmp	.+40     	; 0xc42 <LCD_menu_handle+0x18c>
					{
						LCD_text("R.LINE", 6*6, 0);
     c1a:	40 e0       	ldi	r20, 0x00	; 0
     c1c:	64 e2       	ldi	r22, 0x24	; 36
     c1e:	85 ea       	ldi	r24, 0xA5	; 165
     c20:	90 e2       	ldi	r25, 0x20	; 32
     c22:	9d de       	rcall	.-710    	; 0x95e <LCD_text>
						SENS_FLAG_s.LINE_RIGHT=0;
     c24:	80 91 5b 21 	lds	r24, 0x215B
     c28:	8f 7d       	andi	r24, 0xDF	; 223
     c2a:	80 93 5b 21 	sts	0x215B, r24
     c2e:	2f ef       	ldi	r18, 0xFF	; 255
     c30:	89 e6       	ldi	r24, 0x69	; 105
     c32:	98 e1       	ldi	r25, 0x18	; 24
     c34:	21 50       	subi	r18, 0x01	; 1
     c36:	80 40       	sbci	r24, 0x00	; 0
     c38:	90 40       	sbci	r25, 0x00	; 0
     c3a:	e1 f7       	brne	.-8      	; 0xc34 <LCD_menu_handle+0x17e>
     c3c:	00 c0       	rjmp	.+0      	; 0xc3e <LCD_menu_handle+0x188>
     c3e:	00 00       	nop
     c40:	05 c0       	rjmp	.+10     	; 0xc4c <LCD_menu_handle+0x196>
						_delay_ms(250);
					}
					else LCD_text("      ", 6*6, 0);
     c42:	40 e0       	ldi	r20, 0x00	; 0
     c44:	64 e2       	ldi	r22, 0x24	; 36
     c46:	83 e0       	ldi	r24, 0x03	; 3
     c48:	91 e2       	ldi	r25, 0x21	; 33
     c4a:	89 de       	rcall	.-750    	; 0x95e <LCD_text>
					
					if (SENS_FLAG_s.SHARP_A_FRONT==1)
     c4c:	80 91 5b 21 	lds	r24, 0x215B
     c50:	81 ff       	sbrs	r24, 1
     c52:	14 c0       	rjmp	.+40     	; 0xc7c <LCD_menu_handle+0x1c6>
					{
						LCD_text("SHARP A FRONT", 0, 1);
     c54:	41 e0       	ldi	r20, 0x01	; 1
     c56:	60 e0       	ldi	r22, 0x00	; 0
     c58:	8c ea       	ldi	r24, 0xAC	; 172
     c5a:	90 e2       	ldi	r25, 0x20	; 32
     c5c:	80 de       	rcall	.-768    	; 0x95e <LCD_text>
						SENS_FLAG_s.SHARP_A_FRONT=0;
     c5e:	80 91 5b 21 	lds	r24, 0x215B
     c62:	8d 7f       	andi	r24, 0xFD	; 253
     c64:	80 93 5b 21 	sts	0x215B, r24
     c68:	2f ef       	ldi	r18, 0xFF	; 255
     c6a:	89 e6       	ldi	r24, 0x69	; 105
     c6c:	98 e1       	ldi	r25, 0x18	; 24
     c6e:	21 50       	subi	r18, 0x01	; 1
     c70:	80 40       	sbci	r24, 0x00	; 0
     c72:	90 40       	sbci	r25, 0x00	; 0
     c74:	e1 f7       	brne	.-8      	; 0xc6e <LCD_menu_handle+0x1b8>
     c76:	00 c0       	rjmp	.+0      	; 0xc78 <LCD_menu_handle+0x1c2>
     c78:	00 00       	nop
     c7a:	05 c0       	rjmp	.+10     	; 0xc86 <LCD_menu_handle+0x1d0>
						_delay_ms(250);
					}
					else LCD_text("             ", 0, 1);
     c7c:	41 e0       	ldi	r20, 0x01	; 1
     c7e:	60 e0       	ldi	r22, 0x00	; 0
     c80:	8c ef       	ldi	r24, 0xFC	; 252
     c82:	90 e2       	ldi	r25, 0x20	; 32
     c84:	6c de       	rcall	.-808    	; 0x95e <LCD_text>
					
					if (SENS_FLAG_s.SHARP_A_LEFT==1)
     c86:	80 91 5b 21 	lds	r24, 0x215B
     c8a:	82 ff       	sbrs	r24, 2
     c8c:	14 c0       	rjmp	.+40     	; 0xcb6 <LCD_menu_handle+0x200>
					{
						LCD_text("SHARP A LEFT", 0, 2);
     c8e:	42 e0       	ldi	r20, 0x02	; 2
     c90:	60 e0       	ldi	r22, 0x00	; 0
     c92:	8a eb       	ldi	r24, 0xBA	; 186
     c94:	90 e2       	ldi	r25, 0x20	; 32
     c96:	63 de       	rcall	.-826    	; 0x95e <LCD_text>
						SENS_FLAG_s.SHARP_A_LEFT=0;
     c98:	80 91 5b 21 	lds	r24, 0x215B
     c9c:	8b 7f       	andi	r24, 0xFB	; 251
     c9e:	80 93 5b 21 	sts	0x215B, r24
     ca2:	2f ef       	ldi	r18, 0xFF	; 255
     ca4:	89 e6       	ldi	r24, 0x69	; 105
     ca6:	98 e1       	ldi	r25, 0x18	; 24
     ca8:	21 50       	subi	r18, 0x01	; 1
     caa:	80 40       	sbci	r24, 0x00	; 0
     cac:	90 40       	sbci	r25, 0x00	; 0
     cae:	e1 f7       	brne	.-8      	; 0xca8 <LCD_menu_handle+0x1f2>
     cb0:	00 c0       	rjmp	.+0      	; 0xcb2 <LCD_menu_handle+0x1fc>
     cb2:	00 00       	nop
     cb4:	05 c0       	rjmp	.+10     	; 0xcc0 <LCD_menu_handle+0x20a>
						_delay_ms(250);
					}
					else LCD_text("             ", 0, 2);
     cb6:	42 e0       	ldi	r20, 0x02	; 2
     cb8:	60 e0       	ldi	r22, 0x00	; 0
     cba:	8c ef       	ldi	r24, 0xFC	; 252
     cbc:	90 e2       	ldi	r25, 0x20	; 32
     cbe:	4f de       	rcall	.-866    	; 0x95e <LCD_text>
					
					if (SENS_FLAG_s.SHARP_A_RIGHT==1)
     cc0:	80 91 5b 21 	lds	r24, 0x215B
     cc4:	83 ff       	sbrs	r24, 3
     cc6:	14 c0       	rjmp	.+40     	; 0xcf0 <LCD_menu_handle+0x23a>
					{
						LCD_text("SHARP A RIGHT", 0, 3);
     cc8:	43 e0       	ldi	r20, 0x03	; 3
     cca:	60 e0       	ldi	r22, 0x00	; 0
     ccc:	87 ec       	ldi	r24, 0xC7	; 199
     cce:	90 e2       	ldi	r25, 0x20	; 32
     cd0:	46 de       	rcall	.-884    	; 0x95e <LCD_text>
						SENS_FLAG_s.SHARP_A_RIGHT=0;
     cd2:	80 91 5b 21 	lds	r24, 0x215B
     cd6:	87 7f       	andi	r24, 0xF7	; 247
     cd8:	80 93 5b 21 	sts	0x215B, r24
     cdc:	2f ef       	ldi	r18, 0xFF	; 255
     cde:	89 e6       	ldi	r24, 0x69	; 105
     ce0:	98 e1       	ldi	r25, 0x18	; 24
     ce2:	21 50       	subi	r18, 0x01	; 1
     ce4:	80 40       	sbci	r24, 0x00	; 0
     ce6:	90 40       	sbci	r25, 0x00	; 0
     ce8:	e1 f7       	brne	.-8      	; 0xce2 <LCD_menu_handle+0x22c>
     cea:	00 c0       	rjmp	.+0      	; 0xcec <LCD_menu_handle+0x236>
     cec:	00 00       	nop
     cee:	05 c0       	rjmp	.+10     	; 0xcfa <LCD_menu_handle+0x244>
						_delay_ms(250);
					}
					else LCD_text("             ", 0, 3);
     cf0:	43 e0       	ldi	r20, 0x03	; 3
     cf2:	60 e0       	ldi	r22, 0x00	; 0
     cf4:	8c ef       	ldi	r24, 0xFC	; 252
     cf6:	90 e2       	ldi	r25, 0x20	; 32
     cf8:	32 de       	rcall	.-924    	; 0x95e <LCD_text>
					
					if (SENS_FLAG_s.SHARP_DIGIT==1)
     cfa:	80 91 5b 21 	lds	r24, 0x215B
     cfe:	80 ff       	sbrs	r24, 0
     d00:	14 c0       	rjmp	.+40     	; 0xd2a <LCD_menu_handle+0x274>
					{
						LCD_text("SHARP D FRONT", 0, 3);
     d02:	43 e0       	ldi	r20, 0x03	; 3
     d04:	60 e0       	ldi	r22, 0x00	; 0
     d06:	85 ed       	ldi	r24, 0xD5	; 213
     d08:	90 e2       	ldi	r25, 0x20	; 32
     d0a:	29 de       	rcall	.-942    	; 0x95e <LCD_text>
						SENS_FLAG_s.SHARP_DIGIT=0;
     d0c:	80 91 5b 21 	lds	r24, 0x215B
     d10:	8e 7f       	andi	r24, 0xFE	; 254
     d12:	80 93 5b 21 	sts	0x215B, r24
     d16:	2f ef       	ldi	r18, 0xFF	; 255
     d18:	89 e6       	ldi	r24, 0x69	; 105
     d1a:	98 e1       	ldi	r25, 0x18	; 24
     d1c:	21 50       	subi	r18, 0x01	; 1
     d1e:	80 40       	sbci	r24, 0x00	; 0
     d20:	90 40       	sbci	r25, 0x00	; 0
     d22:	e1 f7       	brne	.-8      	; 0xd1c <LCD_menu_handle+0x266>
     d24:	00 c0       	rjmp	.+0      	; 0xd26 <LCD_menu_handle+0x270>
     d26:	00 00       	nop
     d28:	05 c0       	rjmp	.+10     	; 0xd34 <LCD_menu_handle+0x27e>
						_delay_ms(250);
					}
					else LCD_text("             ", 0, 3);
     d2a:	43 e0       	ldi	r20, 0x03	; 3
     d2c:	60 e0       	ldi	r22, 0x00	; 0
     d2e:	8c ef       	ldi	r24, 0xFC	; 252
     d30:	90 e2       	ldi	r25, 0x20	; 32
     d32:	15 de       	rcall	.-982    	; 0x95e <LCD_text>
				BUZZ_beep(10);
				break;
				
				case 2 :
				LCD_clear();
				while (BUTTON_4_CHECK == 0)
     d34:	88 85       	ldd	r24, Y+8	; 0x08
     d36:	83 fd       	sbrc	r24, 3
     d38:	4f cf       	rjmp	.-354    	; 0xbd8 <LCD_menu_handle+0x122>
						SENS_FLAG_s.SHARP_DIGIT=0;
						_delay_ms(250);
					}
					else LCD_text("             ", 0, 3);
				}
				BUZZ_beep(10);
     d3a:	8a e0       	ldi	r24, 0x0A	; 10
     d3c:	90 e0       	ldi	r25, 0x00	; 0
     d3e:	2c d2       	rcall	.+1112   	; 0x1198 <BUZZ_beep>
				LCD_menu_print();
     d40:	7c de       	rcall	.-776    	; 0xa3a <LCD_menu_print>
				LCD_text(">", 0, Menu_option_counter);
     d42:	40 91 5e 21 	lds	r20, 0x215E
     d46:	60 e0       	ldi	r22, 0x00	; 0
     d48:	8c e9       	ldi	r24, 0x9C	; 156
     d4a:	90 e2       	ldi	r25, 0x20	; 32
     d4c:	08 de       	rcall	.-1008   	; 0x95e <LCD_text>
				break;
     d4e:	6b c0       	rjmp	.+214    	; 0xe26 <LCD_menu_handle+0x370>
				
				case 3 :
				LED_toggle();
     d50:	f0 d0       	rcall	.+480    	; 0xf32 <LED_toggle>
				BUZZ_beep(10);
     d52:	8a e0       	ldi	r24, 0x0A	; 10
     d54:	90 e0       	ldi	r25, 0x00	; 0
     d56:	20 d2       	rcall	.+1088   	; 0x1198 <BUZZ_beep>
				break;
     d58:	66 c0       	rjmp	.+204    	; 0xe26 <LCD_menu_handle+0x370>
				
				case 4 :
				LCD_clear();
     d5a:	dc dd       	rcall	.-1096   	; 0x914 <LCD_clear>
				sprintf(buff,"Volt:%d",ReadADC(MEAS_BAT_V));
     d5c:	84 e0       	ldi	r24, 0x04	; 4
     d5e:	24 dd       	rcall	.-1464   	; 0x7a8 <ReadADC>
     d60:	9f 93       	push	r25
     d62:	8f 93       	push	r24
     d64:	83 ee       	ldi	r24, 0xE3	; 227
     d66:	90 e2       	ldi	r25, 0x20	; 32
     d68:	9f 93       	push	r25
     d6a:	8f 93       	push	r24
     d6c:	83 e3       	ldi	r24, 0x33	; 51
     d6e:	91 e2       	ldi	r25, 0x21	; 33
     d70:	9f 93       	push	r25
     d72:	8f 93       	push	r24
     d74:	c0 d7       	rcall	.+3968   	; 0x1cf6 <sprintf>
				LCD_text(buff, 6, 0);
     d76:	40 e0       	ldi	r20, 0x00	; 0
     d78:	66 e0       	ldi	r22, 0x06	; 6
     d7a:	83 e3       	ldi	r24, 0x33	; 51
     d7c:	91 e2       	ldi	r25, 0x21	; 33
     d7e:	ef dd       	rcall	.-1058   	; 0x95e <LCD_text>
				BUZZ_beep(10);
     d80:	8a e0       	ldi	r24, 0x0A	; 10
     d82:	90 e0       	ldi	r25, 0x00	; 0
     d84:	09 d2       	rcall	.+1042   	; 0x1198 <BUZZ_beep>
				break;
     d86:	0f 90       	pop	r0
     d88:	0f 90       	pop	r0
     d8a:	0f 90       	pop	r0
     d8c:	0f 90       	pop	r0
     d8e:	0f 90       	pop	r0
     d90:	0f 90       	pop	r0
     d92:	49 c0       	rjmp	.+146    	; 0xe26 <LCD_menu_handle+0x370>
				
				case 5 :
				BUZZ_beep(10);
     d94:	8a e0       	ldi	r24, 0x0A	; 10
     d96:	90 e0       	ldi	r25, 0x00	; 0
     d98:	ff d1       	rcall	.+1022   	; 0x1198 <BUZZ_beep>
				MOT_go_forward(50);
     d9a:	82 e3       	ldi	r24, 0x32	; 50
     d9c:	19 d1       	rcall	.+562    	; 0xfd0 <MOT_go_forward>
     d9e:	2f ef       	ldi	r18, 0xFF	; 255
     da0:	89 e6       	ldi	r24, 0x69	; 105
     da2:	98 e1       	ldi	r25, 0x18	; 24
     da4:	21 50       	subi	r18, 0x01	; 1
     da6:	80 40       	sbci	r24, 0x00	; 0
     da8:	90 40       	sbci	r25, 0x00	; 0
     daa:	e1 f7       	brne	.-8      	; 0xda4 <LCD_menu_handle+0x2ee>
     dac:	00 c0       	rjmp	.+0      	; 0xdae <LCD_menu_handle+0x2f8>
     dae:	00 00       	nop
				_delay_ms(250);
				MOT_stop();
     db0:	e9 d0       	rcall	.+466    	; 0xf84 <MOT_stop>
				break;
     db2:	39 c0       	rjmp	.+114    	; 0xe26 <LCD_menu_handle+0x370>
			}
			break;
			
			case SUBMENU_MODE :
			switch (Menu_option_counter)
     db4:	80 91 5e 21 	lds	r24, 0x215E
     db8:	81 30       	cpi	r24, 0x01	; 1
     dba:	99 f0       	breq	.+38     	; 0xde2 <LCD_menu_handle+0x32c>
     dbc:	1c f4       	brge	.+6      	; 0xdc4 <LCD_menu_handle+0x30e>
     dbe:	88 23       	and	r24, r24
     dc0:	31 f0       	breq	.+12     	; 0xdce <LCD_menu_handle+0x318>
     dc2:	31 c0       	rjmp	.+98     	; 0xe26 <LCD_menu_handle+0x370>
     dc4:	82 30       	cpi	r24, 0x02	; 2
     dc6:	b9 f0       	breq	.+46     	; 0xdf6 <LCD_menu_handle+0x340>
     dc8:	85 30       	cpi	r24, 0x05	; 5
     dca:	f9 f0       	breq	.+62     	; 0xe0a <LCD_menu_handle+0x354>
     dcc:	2c c0       	rjmp	.+88     	; 0xe26 <LCD_menu_handle+0x370>
			{
				case 0 :
				GP_FLAGS_s.MODE=MODE_TORNADO;
     dce:	80 91 42 21 	lds	r24, 0x2142
     dd2:	81 7f       	andi	r24, 0xF1	; 241
     dd4:	82 60       	ori	r24, 0x02	; 2
     dd6:	80 93 42 21 	sts	0x2142, r24
				BUZZ_beep(10);
     dda:	8a e0       	ldi	r24, 0x0A	; 10
     ddc:	90 e0       	ldi	r25, 0x00	; 0
     dde:	dc d1       	rcall	.+952    	; 0x1198 <BUZZ_beep>
				break;
     de0:	22 c0       	rjmp	.+68     	; 0xe26 <LCD_menu_handle+0x370>
				
				case 1 :
				GP_FLAGS_s.MODE=MODE_STANDARD;
     de2:	80 91 42 21 	lds	r24, 0x2142
     de6:	81 7f       	andi	r24, 0xF1	; 241
     de8:	84 60       	ori	r24, 0x04	; 4
     dea:	80 93 42 21 	sts	0x2142, r24
				BUZZ_beep(10);
     dee:	8a e0       	ldi	r24, 0x0A	; 10
     df0:	90 e0       	ldi	r25, 0x00	; 0
     df2:	d2 d1       	rcall	.+932    	; 0x1198 <BUZZ_beep>
				break;
     df4:	18 c0       	rjmp	.+48     	; 0xe26 <LCD_menu_handle+0x370>
				
				case 2 :
				GP_FLAGS_s.MODE=MODE_LF;
     df6:	80 91 42 21 	lds	r24, 0x2142
     dfa:	81 7f       	andi	r24, 0xF1	; 241
     dfc:	86 60       	ori	r24, 0x06	; 6
     dfe:	80 93 42 21 	sts	0x2142, r24
				BUZZ_beep(10);
     e02:	8a e0       	ldi	r24, 0x0A	; 10
     e04:	90 e0       	ldi	r25, 0x00	; 0
     e06:	c8 d1       	rcall	.+912    	; 0x1198 <BUZZ_beep>
				break;
     e08:	0e c0       	rjmp	.+28     	; 0xe26 <LCD_menu_handle+0x370>
				
				case 5 : // go up menu
				Menu_sub_flag=SUBMENU_MAIN;
     e0a:	81 e0       	ldi	r24, 0x01	; 1
     e0c:	80 93 32 21 	sts	0x2132, r24
				BUZZ_beep(10);
     e10:	8a e0       	ldi	r24, 0x0A	; 10
     e12:	90 e0       	ldi	r25, 0x00	; 0
     e14:	c1 d1       	rcall	.+898    	; 0x1198 <BUZZ_beep>
				LCD_clear();
     e16:	7e dd       	rcall	.-1284   	; 0x914 <LCD_clear>
				LCD_menu_print();
     e18:	10 de       	rcall	.-992    	; 0xa3a <LCD_menu_print>
				LCD_text(">", 0, Menu_option_counter);
     e1a:	40 91 5e 21 	lds	r20, 0x215E
     e1e:	60 e0       	ldi	r22, 0x00	; 0
     e20:	8c e9       	ldi	r24, 0x9C	; 156
     e22:	90 e2       	ldi	r25, 0x20	; 32
     e24:	9c dd       	rcall	.-1224   	; 0x95e <LCD_text>
			break;
			
			case SUBMENU_VOLTAGE :
			break;
		}
		BTN_s._3=0;
     e26:	80 91 5c 21 	lds	r24, 0x215C
     e2a:	8b 7f       	andi	r24, 0xFB	; 251
     e2c:	80 93 5c 21 	sts	0x215C, r24
	}
	
	if (BTN_s._4==1)
     e30:	80 91 5c 21 	lds	r24, 0x215C
     e34:	83 ff       	sbrs	r24, 3
     e36:	03 c0       	rjmp	.+6      	; 0xe3e <LCD_menu_handle+0x388>
	{
		BTN_s._4=0;
     e38:	87 7f       	andi	r24, 0xF7	; 247
     e3a:	80 93 5c 21 	sts	0x215C, r24
	}
	
}
     e3e:	df 91       	pop	r29
     e40:	cf 91       	pop	r28
     e42:	08 95       	ret

00000e44 <init_LCD>:

void init_LCD(void)
{
     e44:	0f 93       	push	r16
	LCD_RST_OFF//LCD_RST_CLR;
     e46:	84 e0       	ldi	r24, 0x04	; 4
     e48:	e0 e8       	ldi	r30, 0x80	; 128
     e4a:	f6 e0       	ldi	r31, 0x06	; 6
     e4c:	86 83       	std	Z+6, r24	; 0x06
     e4e:	2f ef       	ldi	r18, 0xFF	; 255
     e50:	85 ea       	ldi	r24, 0xA5	; 165
     e52:	9e e0       	ldi	r25, 0x0E	; 14
     e54:	21 50       	subi	r18, 0x01	; 1
     e56:	80 40       	sbci	r24, 0x00	; 0
     e58:	90 40       	sbci	r25, 0x00	; 0
     e5a:	e1 f7       	brne	.-8      	; 0xe54 <init_LCD+0x10>
     e5c:	00 c0       	rjmp	.+0      	; 0xe5e <init_LCD+0x1a>
     e5e:	00 00       	nop
	//   < 30ms
	_delay_ms(150);
	
	LCD_RST_ON//LCD_RST_SET
     e60:	84 e0       	ldi	r24, 0x04	; 4
     e62:	85 83       	std	Z+5, r24	; 0x05
     e64:	2f ef       	ldi	r18, 0xFF	; 255
     e66:	85 ea       	ldi	r24, 0xA5	; 165
     e68:	9e e0       	ldi	r25, 0x0E	; 14
     e6a:	21 50       	subi	r18, 0x01	; 1
     e6c:	80 40       	sbci	r24, 0x00	; 0
     e6e:	90 40       	sbci	r25, 0x00	; 0
     e70:	e1 f7       	brne	.-8      	; 0xe6a <init_LCD+0x26>
     e72:	00 c0       	rjmp	.+0      	; 0xe74 <init_LCD+0x30>
     e74:	00 00       	nop
	_delay_ms(150);
	LCD_SS_ON//LCD_CE_SET
     e76:	80 e1       	ldi	r24, 0x10	; 16
     e78:	85 83       	std	Z+5, r24	; 0x05
	
	LCD_write_byte(LCD_CMD, 0x21); // Function set - extended instruction set
     e7a:	61 e2       	ldi	r22, 0x21	; 33
     e7c:	80 e0       	ldi	r24, 0x00	; 0
     e7e:	e0 dc       	rcall	.-1600   	; 0x840 <LCD_write_byte>
	LCD_write_byte(LCD_CMD, 0x13); // Bias - 1:48
     e80:	63 e1       	ldi	r22, 0x13	; 19
     e82:	80 e0       	ldi	r24, 0x00	; 0
     e84:	dd dc       	rcall	.-1606   	; 0x840 <LCD_write_byte>
	LCD_write_byte(LCD_CMD, 0x06); // Temperature Control
     e86:	66 e0       	ldi	r22, 0x06	; 6
     e88:	80 e0       	ldi	r24, 0x00	; 0
     e8a:	da dc       	rcall	.-1612   	; 0x840 <LCD_write_byte>
	LCD_write_byte(LCD_CMD, 0b10000000|70); // Set Vop
     e8c:	66 ec       	ldi	r22, 0xC6	; 198
     e8e:	80 e0       	ldi	r24, 0x00	; 0
     e90:	d7 dc       	rcall	.-1618   	; 0x840 <LCD_write_byte>
	LCD_write_byte(LCD_CMD, 0x20); // Function set - basic instruction set, horizontal addressing
     e92:	60 e2       	ldi	r22, 0x20	; 32
     e94:	80 e0       	ldi	r24, 0x00	; 0
     e96:	d4 dc       	rcall	.-1624   	; 0x840 <LCD_write_byte>
	LCD_write_byte(LCD_CMD, 0x0C); // Display control - normal mode
     e98:	6c e0       	ldi	r22, 0x0C	; 12
     e9a:	80 e0       	ldi	r24, 0x00	; 0
     e9c:	d1 dc       	rcall	.-1630   	; 0x840 <LCD_write_byte>
	
	LCD_image(IMG_intro,0,0,84,6);
     e9e:	06 e0       	ldi	r16, 0x06	; 6
     ea0:	24 e5       	ldi	r18, 0x54	; 84
     ea2:	40 e0       	ldi	r20, 0x00	; 0
     ea4:	60 e0       	ldi	r22, 0x00	; 0
     ea6:	8e e3       	ldi	r24, 0x3E	; 62
     ea8:	95 e0       	ldi	r25, 0x05	; 5
     eaa:	e2 dc       	rcall	.-1596   	; 0x870 <LCD_image>
	LCD_text("BULLET XT v0.9", 0, 0);
     eac:	40 e0       	ldi	r20, 0x00	; 0
     eae:	60 e0       	ldi	r22, 0x00	; 0
     eb0:	8b ee       	ldi	r24, 0xEB	; 235
     eb2:	90 e2       	ldi	r25, 0x20	; 32
     eb4:	54 dd       	rcall	.-1368   	; 0x95e <LCD_text>
     eb6:	2f ef       	ldi	r18, 0xFF	; 255
     eb8:	83 e2       	ldi	r24, 0x23	; 35
     eba:	94 ef       	ldi	r25, 0xF4	; 244
     ebc:	21 50       	subi	r18, 0x01	; 1
     ebe:	80 40       	sbci	r24, 0x00	; 0
     ec0:	90 40       	sbci	r25, 0x00	; 0
     ec2:	e1 f7       	brne	.-8      	; 0xebc <init_LCD+0x78>
     ec4:	00 c0       	rjmp	.+0      	; 0xec6 <init_LCD+0x82>
     ec6:	00 00       	nop
	_delay_ms(2500);
	LCD_text("               ", 0, 0);
     ec8:	40 e0       	ldi	r20, 0x00	; 0
     eca:	60 e0       	ldi	r22, 0x00	; 0
     ecc:	8a ef       	ldi	r24, 0xFA	; 250
     ece:	90 e2       	ldi	r25, 0x20	; 32
     ed0:	46 dd       	rcall	.-1396   	; 0x95e <LCD_text>
	LCD_text("DESGNED BY:", 0, 0);
     ed2:	40 e0       	ldi	r20, 0x00	; 0
     ed4:	60 e0       	ldi	r22, 0x00	; 0
     ed6:	8a e0       	ldi	r24, 0x0A	; 10
     ed8:	91 e2       	ldi	r25, 0x21	; 33
     eda:	41 dd       	rcall	.-1406   	; 0x95e <LCD_text>
     edc:	2f ef       	ldi	r18, 0xFF	; 255
     ede:	83 e2       	ldi	r24, 0x23	; 35
     ee0:	94 ef       	ldi	r25, 0xF4	; 244
     ee2:	21 50       	subi	r18, 0x01	; 1
     ee4:	80 40       	sbci	r24, 0x00	; 0
     ee6:	90 40       	sbci	r25, 0x00	; 0
     ee8:	e1 f7       	brne	.-8      	; 0xee2 <init_LCD+0x9e>
     eea:	00 c0       	rjmp	.+0      	; 0xeec <init_LCD+0xa8>
     eec:	00 00       	nop
	_delay_ms(2500);
	LCD_text("ANDRZEJ LACZEWSKI", 0, 0);
     eee:	40 e0       	ldi	r20, 0x00	; 0
     ef0:	60 e0       	ldi	r22, 0x00	; 0
     ef2:	86 e1       	ldi	r24, 0x16	; 22
     ef4:	91 e2       	ldi	r25, 0x21	; 33
     ef6:	33 dd       	rcall	.-1434   	; 0x95e <LCD_text>
     ef8:	2f ef       	ldi	r18, 0xFF	; 255
     efa:	83 e2       	ldi	r24, 0x23	; 35
     efc:	94 ef       	ldi	r25, 0xF4	; 244
     efe:	21 50       	subi	r18, 0x01	; 1
     f00:	80 40       	sbci	r24, 0x00	; 0
     f02:	90 40       	sbci	r25, 0x00	; 0
     f04:	e1 f7       	brne	.-8      	; 0xefe <init_LCD+0xba>
     f06:	00 c0       	rjmp	.+0      	; 0xf08 <init_LCD+0xc4>
     f08:	00 00       	nop
	_delay_ms(2500);
	LCD_clear();
     f0a:	04 dd       	rcall	.-1528   	; 0x914 <LCD_clear>
	LCD_menu_print();
     f0c:	96 dd       	rcall	.-1236   	; 0xa3a <LCD_menu_print>
	LCD_text(">", 0, 0);
     f0e:	40 e0       	ldi	r20, 0x00	; 0
     f10:	60 e0       	ldi	r22, 0x00	; 0
     f12:	8c e9       	ldi	r24, 0x9C	; 156
     f14:	90 e2       	ldi	r25, 0x20	; 32
     f16:	23 dd       	rcall	.-1466   	; 0x95e <LCD_text>
	
	BTN_s._1=0;
     f18:	80 91 5c 21 	lds	r24, 0x215C
	BTN_s._2=0;
	BTN_s._3=0;
	BTN_s._4=0;
     f1c:	88 7f       	andi	r24, 0xF8	; 248
     f1e:	87 7f       	andi	r24, 0xF7	; 247
     f20:	80 93 5c 21 	sts	0x215C, r24
	Menu_option_counter=0;
     f24:	10 92 5e 21 	sts	0x215E, r1
	Menu_sub_flag=SUBMENU_MAIN;
     f28:	81 e0       	ldi	r24, 0x01	; 1
     f2a:	80 93 32 21 	sts	0x2132, r24
     f2e:	0f 91       	pop	r16
     f30:	08 95       	ret

00000f32 <LED_toggle>:
	PORTF.OUTCLR = PIN7_bm;
	_delay_ms(200);
}
void LED_toggle(void)
{
	LED_1_TOG
     f32:	e0 ea       	ldi	r30, 0xA0	; 160
     f34:	f6 e0       	ldi	r31, 0x06	; 6
     f36:	82 e0       	ldi	r24, 0x02	; 2
     f38:	87 83       	std	Z+7, r24	; 0x07
	LED_2_TOG
     f3a:	94 e0       	ldi	r25, 0x04	; 4
     f3c:	97 83       	std	Z+7, r25	; 0x07
	LED_3_TOG
     f3e:	98 e0       	ldi	r25, 0x08	; 8
     f40:	97 83       	std	Z+7, r25	; 0x07
	LED_4_TOG
     f42:	90 e1       	ldi	r25, 0x10	; 16
     f44:	97 83       	std	Z+7, r25	; 0x07
	LED_5_TOG
     f46:	90 e2       	ldi	r25, 0x20	; 32
     f48:	97 83       	std	Z+7, r25	; 0x07
	LED_6_TOG
     f4a:	90 e4       	ldi	r25, 0x40	; 64
     f4c:	97 83       	std	Z+7, r25	; 0x07
	LED_7_TOG
     f4e:	90 e8       	ldi	r25, 0x80	; 128
     f50:	97 83       	std	Z+7, r25	; 0x07
	LED_8_TOG
     f52:	e0 e4       	ldi	r30, 0x40	; 64
     f54:	f6 e0       	ldi	r31, 0x06	; 6
     f56:	87 83       	std	Z+7, r24	; 0x07
     f58:	08 95       	ret

00000f5a <init_MOT_PWM>:
	M1_IN1_OFF
	M1_IN2_ON
	#endif
	
	TCC0.CCA  =  ML_speed;
	TCD0.CCA  =  MR_speed;
     f5a:	e0 e0       	ldi	r30, 0x00	; 0
     f5c:	f9 e0       	ldi	r31, 0x09	; 9
     f5e:	36 e1       	ldi	r19, 0x16	; 22
     f60:	31 83       	std	Z+1, r19	; 0x01
     f62:	84 e6       	ldi	r24, 0x64	; 100
     f64:	90 e0       	ldi	r25, 0x00	; 0
     f66:	86 a3       	std	Z+38, r24	; 0x26
     f68:	97 a3       	std	Z+39, r25	; 0x27
     f6a:	10 a6       	std	Z+40, r1	; 0x28
     f6c:	11 a6       	std	Z+41, r1	; 0x29
     f6e:	24 e0       	ldi	r18, 0x04	; 4
     f70:	20 83       	st	Z, r18
     f72:	e0 e0       	ldi	r30, 0x00	; 0
     f74:	f8 e0       	ldi	r31, 0x08	; 8
     f76:	31 83       	std	Z+1, r19	; 0x01
     f78:	86 a3       	std	Z+38, r24	; 0x26
     f7a:	97 a3       	std	Z+39, r25	; 0x27
     f7c:	10 a6       	std	Z+40, r1	; 0x28
     f7e:	11 a6       	std	Z+41, r1	; 0x29
     f80:	20 83       	st	Z, r18
     f82:	08 95       	ret

00000f84 <MOT_stop>:
     f84:	e0 e2       	ldi	r30, 0x20	; 32
     f86:	f6 e0       	ldi	r31, 0x06	; 6
     f88:	80 e4       	ldi	r24, 0x40	; 64
     f8a:	86 83       	std	Z+6, r24	; 0x06
     f8c:	80 e8       	ldi	r24, 0x80	; 128
     f8e:	86 83       	std	Z+6, r24	; 0x06
     f90:	80 e1       	ldi	r24, 0x10	; 16
     f92:	86 83       	std	Z+6, r24	; 0x06
     f94:	80 e2       	ldi	r24, 0x20	; 32
     f96:	86 83       	std	Z+6, r24	; 0x06
     f98:	e0 e0       	ldi	r30, 0x00	; 0
     f9a:	f8 e0       	ldi	r31, 0x08	; 8
     f9c:	10 a6       	std	Z+40, r1	; 0x28
     f9e:	11 a6       	std	Z+41, r1	; 0x29
     fa0:	e0 e0       	ldi	r30, 0x00	; 0
     fa2:	f9 e0       	ldi	r31, 0x09	; 9
     fa4:	10 a6       	std	Z+40, r1	; 0x28
     fa6:	11 a6       	std	Z+41, r1	; 0x29
     fa8:	08 95       	ret

00000faa <MOT_brake>:
     faa:	e0 e2       	ldi	r30, 0x20	; 32
     fac:	f6 e0       	ldi	r31, 0x06	; 6
     fae:	80 e4       	ldi	r24, 0x40	; 64
     fb0:	85 83       	std	Z+5, r24	; 0x05
     fb2:	80 e8       	ldi	r24, 0x80	; 128
     fb4:	85 83       	std	Z+5, r24	; 0x05
     fb6:	80 e1       	ldi	r24, 0x10	; 16
     fb8:	85 83       	std	Z+5, r24	; 0x05
     fba:	80 e2       	ldi	r24, 0x20	; 32
     fbc:	85 83       	std	Z+5, r24	; 0x05
     fbe:	e0 e0       	ldi	r30, 0x00	; 0
     fc0:	f8 e0       	ldi	r31, 0x08	; 8
     fc2:	10 a6       	std	Z+40, r1	; 0x28
     fc4:	11 a6       	std	Z+41, r1	; 0x29
     fc6:	e0 e0       	ldi	r30, 0x00	; 0
     fc8:	f9 e0       	ldi	r31, 0x09	; 9
     fca:	10 a6       	std	Z+40, r1	; 0x28
     fcc:	11 a6       	std	Z+41, r1	; 0x29
     fce:	08 95       	ret

00000fd0 <MOT_go_forward>:
     fd0:	e0 e2       	ldi	r30, 0x20	; 32
     fd2:	f6 e0       	ldi	r31, 0x06	; 6
     fd4:	90 e4       	ldi	r25, 0x40	; 64
     fd6:	96 83       	std	Z+6, r25	; 0x06
     fd8:	90 e8       	ldi	r25, 0x80	; 128
     fda:	95 83       	std	Z+5, r25	; 0x05
     fdc:	90 e1       	ldi	r25, 0x10	; 16
     fde:	95 83       	std	Z+5, r25	; 0x05
     fe0:	90 e2       	ldi	r25, 0x20	; 32
     fe2:	96 83       	std	Z+6, r25	; 0x06
     fe4:	90 e0       	ldi	r25, 0x00	; 0
     fe6:	e0 e0       	ldi	r30, 0x00	; 0
     fe8:	f8 e0       	ldi	r31, 0x08	; 8
     fea:	80 a7       	std	Z+40, r24	; 0x28
     fec:	91 a7       	std	Z+41, r25	; 0x29
     fee:	e0 e0       	ldi	r30, 0x00	; 0
     ff0:	f9 e0       	ldi	r31, 0x09	; 9
     ff2:	80 a7       	std	Z+40, r24	; 0x28
     ff4:	91 a7       	std	Z+41, r25	; 0x29
     ff6:	08 95       	ret

00000ff8 <MOT_go_backward>:
     ff8:	e0 e2       	ldi	r30, 0x20	; 32
     ffa:	f6 e0       	ldi	r31, 0x06	; 6
     ffc:	90 e4       	ldi	r25, 0x40	; 64
     ffe:	95 83       	std	Z+5, r25	; 0x05
    1000:	90 e8       	ldi	r25, 0x80	; 128
    1002:	96 83       	std	Z+6, r25	; 0x06
    1004:	90 e1       	ldi	r25, 0x10	; 16
    1006:	96 83       	std	Z+6, r25	; 0x06
    1008:	90 e2       	ldi	r25, 0x20	; 32
    100a:	95 83       	std	Z+5, r25	; 0x05
    100c:	90 e0       	ldi	r25, 0x00	; 0
    100e:	e0 e0       	ldi	r30, 0x00	; 0
    1010:	f8 e0       	ldi	r31, 0x08	; 8
    1012:	80 a7       	std	Z+40, r24	; 0x28
    1014:	91 a7       	std	Z+41, r25	; 0x29
    1016:	e0 e0       	ldi	r30, 0x00	; 0
    1018:	f9 e0       	ldi	r31, 0x09	; 9
    101a:	80 a7       	std	Z+40, r24	; 0x28
    101c:	91 a7       	std	Z+41, r25	; 0x29
    101e:	08 95       	ret

00001020 <MOT_turn_left>:
    1020:	e0 e2       	ldi	r30, 0x20	; 32
    1022:	f6 e0       	ldi	r31, 0x06	; 6
    1024:	90 e4       	ldi	r25, 0x40	; 64
    1026:	95 83       	std	Z+5, r25	; 0x05
    1028:	90 e8       	ldi	r25, 0x80	; 128
    102a:	96 83       	std	Z+6, r25	; 0x06
    102c:	90 e1       	ldi	r25, 0x10	; 16
    102e:	95 83       	std	Z+5, r25	; 0x05
    1030:	90 e2       	ldi	r25, 0x20	; 32
    1032:	96 83       	std	Z+6, r25	; 0x06
    1034:	90 e0       	ldi	r25, 0x00	; 0
    1036:	e0 e0       	ldi	r30, 0x00	; 0
    1038:	f8 e0       	ldi	r31, 0x08	; 8
    103a:	80 a7       	std	Z+40, r24	; 0x28
    103c:	91 a7       	std	Z+41, r25	; 0x29
    103e:	e0 e0       	ldi	r30, 0x00	; 0
    1040:	f9 e0       	ldi	r31, 0x09	; 9
    1042:	80 a7       	std	Z+40, r24	; 0x28
    1044:	91 a7       	std	Z+41, r25	; 0x29
    1046:	08 95       	ret

00001048 <MOT_turn_right>:
    1048:	e0 e2       	ldi	r30, 0x20	; 32
    104a:	f6 e0       	ldi	r31, 0x06	; 6
    104c:	90 e4       	ldi	r25, 0x40	; 64
    104e:	96 83       	std	Z+6, r25	; 0x06
    1050:	90 e8       	ldi	r25, 0x80	; 128
    1052:	95 83       	std	Z+5, r25	; 0x05
    1054:	90 e1       	ldi	r25, 0x10	; 16
    1056:	96 83       	std	Z+6, r25	; 0x06
    1058:	90 e2       	ldi	r25, 0x20	; 32
    105a:	95 83       	std	Z+5, r25	; 0x05
    105c:	90 e0       	ldi	r25, 0x00	; 0
    105e:	e0 e0       	ldi	r30, 0x00	; 0
    1060:	f8 e0       	ldi	r31, 0x08	; 8
    1062:	80 a7       	std	Z+40, r24	; 0x28
    1064:	91 a7       	std	Z+41, r25	; 0x29
    1066:	e0 e0       	ldi	r30, 0x00	; 0
    1068:	f9 e0       	ldi	r31, 0x09	; 9
    106a:	80 a7       	std	Z+40, r24	; 0x28
    106c:	91 a7       	std	Z+41, r25	; 0x29
    106e:	08 95       	ret

00001070 <MOT_turn_45_deg>:
//     }
// }

void MOT_turn_45_deg(uint8_t dir)
{
	if (dir==DIR_LEFT) 	MOT_turn_left(60);
    1070:	81 30       	cpi	r24, 0x01	; 1
    1072:	19 f4       	brne	.+6      	; 0x107a <MOT_turn_45_deg+0xa>
    1074:	8c e3       	ldi	r24, 0x3C	; 60
    1076:	d4 df       	rcall	.-88     	; 0x1020 <MOT_turn_left>
    1078:	04 c0       	rjmp	.+8      	; 0x1082 <MOT_turn_45_deg+0x12>
    if (dir==DIR_RIGHT)	MOT_turn_right(60);
    107a:	82 30       	cpi	r24, 0x02	; 2
    107c:	11 f4       	brne	.+4      	; 0x1082 <MOT_turn_45_deg+0x12>
    107e:	8c e3       	ldi	r24, 0x3C	; 60
    1080:	e3 df       	rcall	.-58     	; 0x1048 <MOT_turn_right>
    1082:	2f ef       	ldi	r18, 0xFF	; 255
    1084:	8b ed       	ldi	r24, 0xDB	; 219
    1086:	95 e0       	ldi	r25, 0x05	; 5
    1088:	21 50       	subi	r18, 0x01	; 1
    108a:	80 40       	sbci	r24, 0x00	; 0
    108c:	90 40       	sbci	r25, 0x00	; 0
    108e:	e1 f7       	brne	.-8      	; 0x1088 <MOT_turn_45_deg+0x18>
    1090:	00 c0       	rjmp	.+0      	; 0x1092 <MOT_turn_45_deg+0x22>
    1092:	00 00       	nop
	
    _delay_ms(60);//115
//     MOT_time = read_rtc_time();
//     while(read_rtc_time()-MOT_time <= 60 && SENS_FLAG_s.LINE_LEFT==0 && SENS_FLAG_s.LINE_RIGHT==0 )

	MOT_brake();
    1094:	8a cf       	rjmp	.-236    	; 0xfaa <MOT_brake>
    1096:	08 95       	ret

00001098 <MOT_turn_90_deg>:
}
void MOT_turn_90_deg(uint8_t dir)
{
	if (dir==DIR_LEFT) 	MOT_turn_left(60);
    1098:	81 30       	cpi	r24, 0x01	; 1
    109a:	19 f4       	brne	.+6      	; 0x10a2 <MOT_turn_90_deg+0xa>
    109c:	8c e3       	ldi	r24, 0x3C	; 60
    109e:	c0 df       	rcall	.-128    	; 0x1020 <MOT_turn_left>
    10a0:	04 c0       	rjmp	.+8      	; 0x10aa <MOT_turn_90_deg+0x12>
	if (dir==DIR_RIGHT)	MOT_turn_right(60);
    10a2:	82 30       	cpi	r24, 0x02	; 2
    10a4:	11 f4       	brne	.+4      	; 0x10aa <MOT_turn_90_deg+0x12>
    10a6:	8c e3       	ldi	r24, 0x3C	; 60
    10a8:	cf df       	rcall	.-98     	; 0x1048 <MOT_turn_right>
    10aa:	2f ef       	ldi	r18, 0xFF	; 255
    10ac:	8d eb       	ldi	r24, 0xBD	; 189
    10ae:	9a e0       	ldi	r25, 0x0A	; 10
    10b0:	21 50       	subi	r18, 0x01	; 1
    10b2:	80 40       	sbci	r24, 0x00	; 0
    10b4:	90 40       	sbci	r25, 0x00	; 0
    10b6:	e1 f7       	brne	.-8      	; 0x10b0 <MOT_turn_90_deg+0x18>
    10b8:	00 c0       	rjmp	.+0      	; 0x10ba <MOT_turn_90_deg+0x22>
    10ba:	00 00       	nop
	_delay_ms(110);//115
	MOT_brake();
    10bc:	76 cf       	rjmp	.-276    	; 0xfaa <MOT_brake>
    10be:	08 95       	ret

000010c0 <MOT_turn_180_deg>:
}
void MOT_turn_180_deg(uint8_t dir)
{
	if (dir==DIR_LEFT) 	MOT_turn_left(60);
    10c0:	81 30       	cpi	r24, 0x01	; 1
    10c2:	19 f4       	brne	.+6      	; 0x10ca <MOT_turn_180_deg+0xa>
    10c4:	8c e3       	ldi	r24, 0x3C	; 60
    10c6:	ac df       	rcall	.-168    	; 0x1020 <MOT_turn_left>
    10c8:	04 c0       	rjmp	.+8      	; 0x10d2 <MOT_turn_180_deg+0x12>
	if (dir==DIR_RIGHT)	MOT_turn_right(60);
    10ca:	82 30       	cpi	r24, 0x02	; 2
    10cc:	11 f4       	brne	.+4      	; 0x10d2 <MOT_turn_180_deg+0x12>
    10ce:	8c e3       	ldi	r24, 0x3C	; 60
    10d0:	bb df       	rcall	.-138    	; 0x1048 <MOT_turn_right>
    10d2:	2f ef       	ldi	r18, 0xFF	; 255
    10d4:	8d e8       	ldi	r24, 0x8D	; 141
    10d6:	92 e1       	ldi	r25, 0x12	; 18
    10d8:	21 50       	subi	r18, 0x01	; 1
    10da:	80 40       	sbci	r24, 0x00	; 0
    10dc:	90 40       	sbci	r25, 0x00	; 0
    10de:	e1 f7       	brne	.-8      	; 0x10d8 <MOT_turn_180_deg+0x18>
    10e0:	00 c0       	rjmp	.+0      	; 0x10e2 <MOT_turn_180_deg+0x22>
    10e2:	00 00       	nop
	_delay_ms(190);//115
	MOT_brake();
    10e4:	62 cf       	rjmp	.-316    	; 0xfaa <MOT_brake>
    10e6:	08 95       	ret

000010e8 <init_OSC_PLL>:
void init_WDT(void)
{
	CPU_CCP  =   CCP_IOREG_gc;// unolc change in important registers
	WDT.CTRL=WDT_ENABLE_bm|WDT_PER_2KCLK_gc|WDT_CEN_bm; //2s WDT timeout
	while (WDT.STATUS & WDT_SYNCBUSY_bm);
}
    10e8:	98 ed       	ldi	r25, 0xD8	; 216
    10ea:	94 bf       	out	0x34, r25	; 52
    10ec:	93 e0       	ldi	r25, 0x03	; 3
    10ee:	e0 e4       	ldi	r30, 0x40	; 64
    10f0:	f0 e0       	ldi	r31, 0x00	; 0
    10f2:	91 83       	std	Z+1, r25	; 0x01
    10f4:	e0 e5       	ldi	r30, 0x50	; 80
    10f6:	f0 e0       	ldi	r31, 0x00	; 0
    10f8:	9b ec       	ldi	r25, 0xCB	; 203
    10fa:	92 83       	std	Z+2, r25	; 0x02
    10fc:	98 e0       	ldi	r25, 0x08	; 8
    10fe:	90 83       	st	Z, r25
    1100:	91 81       	ldd	r25, Z+1	; 0x01
    1102:	93 ff       	sbrs	r25, 3
    1104:	fd cf       	rjmp	.-6      	; 0x1100 <init_OSC_PLL+0x18>
    1106:	98 ed       	ldi	r25, 0xD8	; 216
    1108:	94 bf       	out	0x34, r25	; 52
    110a:	93 e0       	ldi	r25, 0x03	; 3
    110c:	90 93 40 00 	sts	0x0040, r25
    1110:	e0 e5       	ldi	r30, 0x50	; 80
    1112:	f0 e0       	ldi	r31, 0x00	; 0
    1114:	90 81       	ld	r25, Z
    1116:	9f 7e       	andi	r25, 0xEF	; 239
    1118:	90 83       	st	Z, r25
    111a:	80 6c       	ori	r24, 0xC0	; 192
    111c:	85 83       	std	Z+5, r24	; 0x05
    111e:	80 e1       	ldi	r24, 0x10	; 16
    1120:	80 83       	st	Z, r24
    1122:	81 81       	ldd	r24, Z+1	; 0x01
    1124:	84 ff       	sbrs	r24, 4
    1126:	fd cf       	rjmp	.-6      	; 0x1122 <init_OSC_PLL+0x3a>
    1128:	88 ed       	ldi	r24, 0xD8	; 216
    112a:	84 bf       	out	0x34, r24	; 52
    112c:	94 e0       	ldi	r25, 0x04	; 4
    112e:	90 93 40 00 	sts	0x0040, r25
    1132:	84 bf       	out	0x34, r24	; 52
    1134:	85 e0       	ldi	r24, 0x05	; 5
    1136:	e0 e5       	ldi	r30, 0x50	; 80
    1138:	f0 e0       	ldi	r31, 0x00	; 0
    113a:	83 83       	std	Z+3, r24	; 0x03
    113c:	08 95       	ret

0000113e <init_TIM_0F>:
    113e:	e0 e0       	ldi	r30, 0x00	; 0
    1140:	fb e0       	ldi	r31, 0x0B	; 11
    1142:	81 e1       	ldi	r24, 0x11	; 17
    1144:	81 83       	std	Z+1, r24	; 0x01
    1146:	87 e0       	ldi	r24, 0x07	; 7
    1148:	80 83       	st	Z, r24
    114a:	16 82       	std	Z+6, r1	; 0x06
    114c:	8f e0       	ldi	r24, 0x0F	; 15
    114e:	90 e0       	ldi	r25, 0x00	; 0
    1150:	80 a7       	std	Z+40, r24	; 0x28
    1152:	91 a7       	std	Z+41, r25	; 0x29
    1154:	08 95       	ret

00001156 <init_TIM_0E>:
    1156:	e0 e0       	ldi	r30, 0x00	; 0
    1158:	fa e0       	ldi	r31, 0x0A	; 10
    115a:	11 82       	std	Z+1, r1	; 0x01
    115c:	87 e0       	ldi	r24, 0x07	; 7
    115e:	80 83       	st	Z, r24
    1160:	81 e0       	ldi	r24, 0x01	; 1
    1162:	86 83       	std	Z+6, r24	; 0x06
    1164:	8d e7       	ldi	r24, 0x7D	; 125
    1166:	90 e0       	ldi	r25, 0x00	; 0
    1168:	86 a3       	std	Z+38, r24	; 0x26
    116a:	97 a3       	std	Z+39, r25	; 0x27
    116c:	08 95       	ret

0000116e <read_rtc_time>:
    116e:	e0 e0       	ldi	r30, 0x00	; 0
    1170:	f4 e0       	ldi	r31, 0x04	; 4
    1172:	00 84       	ldd	r0, Z+8	; 0x08
    1174:	f1 85       	ldd	r31, Z+9	; 0x09
    1176:	e0 2d       	mov	r30, r0
    1178:	20 91 43 21 	lds	r18, 0x2143
    117c:	30 91 44 21 	lds	r19, 0x2144
    1180:	40 91 45 21 	lds	r20, 0x2145
    1184:	50 91 46 21 	lds	r21, 0x2146
    1188:	a0 e6       	ldi	r26, 0x60	; 96
    118a:	ba ee       	ldi	r27, 0xEA	; 234
    118c:	9b d5       	rcall	.+2870   	; 0x1cc4 <__muluhisi3>
    118e:	6e 0f       	add	r22, r30
    1190:	7f 1f       	adc	r23, r31
    1192:	81 1d       	adc	r24, r1
    1194:	91 1d       	adc	r25, r1
    1196:	08 95       	ret

00001198 <BUZZ_beep>:
    1198:	80 93 5f 21 	sts	0x215F, r24
    119c:	90 93 60 21 	sts	0x2160, r25
    11a0:	e0 e0       	ldi	r30, 0x00	; 0
    11a2:	fb e0       	ldi	r31, 0x0B	; 11
    11a4:	81 81       	ldd	r24, Z+1	; 0x01
    11a6:	80 61       	ori	r24, 0x10	; 16
    11a8:	81 83       	std	Z+1, r24	; 0x01
    11aa:	08 95       	ret

000011ac <init_PMIC>:
    11ac:	78 94       	sei
    11ae:	87 e0       	ldi	r24, 0x07	; 7
    11b0:	e0 ea       	ldi	r30, 0xA0	; 160
    11b2:	f0 e0       	ldi	r31, 0x00	; 0
    11b4:	82 83       	std	Z+2, r24	; 0x02
    11b6:	08 95       	ret

000011b8 <init_RTC>:
    11b8:	85 e0       	ldi	r24, 0x05	; 5
    11ba:	e0 e4       	ldi	r30, 0x40	; 64
    11bc:	f0 e0       	ldi	r31, 0x00	; 0
    11be:	83 83       	std	Z+3, r24	; 0x03
    11c0:	81 e0       	ldi	r24, 0x01	; 1
    11c2:	80 93 00 04 	sts	0x0400, r24
    11c6:	e0 e0       	ldi	r30, 0x00	; 0
    11c8:	f4 e0       	ldi	r31, 0x04	; 4
    11ca:	81 81       	ldd	r24, Z+1	; 0x01
    11cc:	80 fd       	sbrc	r24, 0
    11ce:	fd cf       	rjmp	.-6      	; 0x11ca <init_RTC+0x12>
    11d0:	82 e0       	ldi	r24, 0x02	; 2
    11d2:	e0 e0       	ldi	r30, 0x00	; 0
    11d4:	f4 e0       	ldi	r31, 0x04	; 4
    11d6:	82 83       	std	Z+2, r24	; 0x02
    11d8:	81 81       	ldd	r24, Z+1	; 0x01
    11da:	80 fd       	sbrc	r24, 0
    11dc:	fd cf       	rjmp	.-6      	; 0x11d8 <init_RTC+0x20>
    11de:	80 e6       	ldi	r24, 0x60	; 96
    11e0:	9a ee       	ldi	r25, 0xEA	; 234
    11e2:	e0 e0       	ldi	r30, 0x00	; 0
    11e4:	f4 e0       	ldi	r31, 0x04	; 4
    11e6:	82 87       	std	Z+10, r24	; 0x0a
    11e8:	93 87       	std	Z+11, r25	; 0x0b
    11ea:	81 81       	ldd	r24, Z+1	; 0x01
    11ec:	80 fd       	sbrc	r24, 0
    11ee:	fd cf       	rjmp	.-6      	; 0x11ea <init_RTC+0x32>
    11f0:	e0 e0       	ldi	r30, 0x00	; 0
    11f2:	f4 e0       	ldi	r31, 0x04	; 4
    11f4:	10 86       	std	Z+8, r1	; 0x08
    11f6:	11 86       	std	Z+9, r1	; 0x09
    11f8:	08 95       	ret

000011fa <init_PORTS>:

void init_PORTS(void)
{
	/*----------------------ANALOG--------------------------*/
	// --------------PORTA--------------
	PORTA.DIRCLR = PIN0_bm;//PIN0 --> AREF 3.3v
    11fa:	e0 e0       	ldi	r30, 0x00	; 0
    11fc:	f6 e0       	ldi	r31, 0x06	; 6
    11fe:	91 e0       	ldi	r25, 0x01	; 1
    1200:	92 83       	std	Z+2, r25	; 0x02
	PORTA.DIRCLR = PIN1_bm;//PIN1 --> ADC  SHARP 1
    1202:	82 e0       	ldi	r24, 0x02	; 2
    1204:	82 83       	std	Z+2, r24	; 0x02
	PORTA.DIRCLR = PIN2_bm;//PIN2 --> ADC  SHARP 2
    1206:	64 e0       	ldi	r22, 0x04	; 4
    1208:	62 83       	std	Z+2, r22	; 0x02
	PORTA.DIRCLR = PIN3_bm;//PIN3 --> ADC  SHARP 3
    120a:	58 e0       	ldi	r21, 0x08	; 8
    120c:	52 83       	std	Z+2, r21	; 0x02
	PORTA.DIRCLR = PIN4_bm;//PIN4 --> ADC BAT VOLTAGE
    120e:	70 e1       	ldi	r23, 0x10	; 16
    1210:	72 83       	std	Z+2, r23	; 0x02
	PORTA.DIRCLR = PIN5_bm;//PIN5 --> DIGITAL SHARP
    1212:	40 e2       	ldi	r20, 0x20	; 32
    1214:	42 83       	std	Z+2, r20	; 0x02
	PORTA.DIRCLR = PIN6_bm;//PIN6 --> SHARP_INT_3
    1216:	30 e4       	ldi	r19, 0x40	; 64
    1218:	32 83       	std	Z+2, r19	; 0x02
	PORTA.PIN6CTRL  =    PORT_ISC_RISING_gc;
    121a:	96 8b       	std	Z+22, r25	; 0x16
	PORTA.INT0MASK  =    PIN6_bm;
    121c:	32 87       	std	Z+10, r19	; 0x0a
	PORTA.PIN5CTRL  =    PORT_ISC_FALLING_gc;
    121e:	85 8b       	std	Z+21, r24	; 0x15
	PORTA.INT1MASK  =    PIN5_bm;
    1220:	43 87       	std	Z+11, r20	; 0x0b
	PORTA.INTCTRL   =    PORT_INT0LVL_MED_gc|PORT_INT1LVL_MED_gc;
    1222:	aa e0       	ldi	r26, 0x0A	; 10
    1224:	a1 87       	std	Z+9, r26	; 0x09
	PORTA.DIRCLR = PIN7_bm;//PIN7 --> IR_RECEIVER
    1226:	20 e8       	ldi	r18, 0x80	; 128
    1228:	22 83       	std	Z+2, r18	; 0x02
	// --------------PORTB--------------
	PORTB.DIRCLR = PIN0_bm;//PIN0 --> BUTTON 1 //use interupt
    122a:	e0 e2       	ldi	r30, 0x20	; 32
    122c:	f6 e0       	ldi	r31, 0x06	; 6
    122e:	92 83       	std	Z+2, r25	; 0x02
	PORTB.DIRCLR = PIN1_bm;//PIN1 --> BUTTON 2 //use interupt
    1230:	82 83       	std	Z+2, r24	; 0x02
	PORTB.DIRCLR = PIN2_bm;//PIN2 --> BUTTON 3
    1232:	62 83       	std	Z+2, r22	; 0x02
	PORTB.DIRCLR = PIN3_bm;//PIN3 --> BUTTON 4
    1234:	52 83       	std	Z+2, r21	; 0x02
	PORTB.PIN0CTRL  =    PORT_OPC_PULLUP_gc;
    1236:	b8 e1       	ldi	r27, 0x18	; 24
    1238:	b0 8b       	std	Z+16, r27	; 0x10
	PORTB.PIN1CTRL  =    PORT_OPC_PULLUP_gc;
    123a:	b1 8b       	std	Z+17, r27	; 0x11
	PORTB.PIN2CTRL  =    PORT_OPC_PULLUP_gc;
    123c:	b2 8b       	std	Z+18, r27	; 0x12
	PORTB.PIN3CTRL  =    PORT_OPC_PULLUP_gc;
    123e:	b3 8b       	std	Z+19, r27	; 0x13
	
	PORTB.DIRSET = PIN4_bm;//PIN4 --> M1_IN1
    1240:	71 83       	std	Z+1, r23	; 0x01
	PORTB.DIRSET = PIN5_bm;//PIN5 --> M1_IN2
    1242:	41 83       	std	Z+1, r20	; 0x01
	PORTB.DIRSET = PIN6_bm;//PIN6 --> M2_IN1
    1244:	31 83       	std	Z+1, r19	; 0x01
	PORTB.DIRSET = PIN7_bm;//PIN7 --> M2_IN2
    1246:	21 83       	std	Z+1, r18	; 0x01
	/*----------------------END----ANALOG--------------------------*/
	// --------------PORTC--------------
	PORTC.DIRSET = PIN0_bm;//PIN0 -->M1 PWM
    1248:	e0 e4       	ldi	r30, 0x40	; 64
    124a:	f6 e0       	ldi	r31, 0x06	; 6
    124c:	91 83       	std	Z+1, r25	; 0x01
	PORTC.DIRSET = PIN1_bm;//PIN1 -->LED 0
    124e:	81 83       	std	Z+1, r24	; 0x01
	PORTC.DIRCLR = PIN2_bm;//PIN2 -->DBG RX
    1250:	62 83       	std	Z+2, r22	; 0x02
	PORTC.DIRSET = PIN3_bm;//PIN3 -->DBG TX
    1252:	51 83       	std	Z+1, r21	; 0x01
	//PIN4 -->
	//PIN5 -->
	PORTC.DIRCLR = PIN6_bm;//PIN6 -->SHARP_INT_2
    1254:	32 83       	std	Z+2, r19	; 0x02
	PORTC.PIN6CTRL  =    PORT_ISC_RISING_gc;
    1256:	96 8b       	std	Z+22, r25	; 0x16
	PORTC.INT0MASK  =    PIN6_bm;
    1258:	32 87       	std	Z+10, r19	; 0x0a
	
	PORTC.DIRCLR = PIN7_bm;//PIN7 -->SHARP_INT_1
    125a:	22 83       	std	Z+2, r18	; 0x02
	PORTC.PIN7CTRL  =    PORT_ISC_RISING_gc;
    125c:	97 8b       	std	Z+23, r25	; 0x17
	PORTC.INT1MASK  =    PIN7_bm;
    125e:	23 87       	std	Z+11, r18	; 0x0b
	PORTC.INTCTRL   =    PORT_INT0LVL_MED_gc|PORT_INT1LVL_MED_gc;
    1260:	a1 87       	std	Z+9, r26	; 0x09
	// --------------PORTD--------------
	PORTD.DIRSET = PIN0_bm;//PIN0 -->M2 PWM
    1262:	e0 e6       	ldi	r30, 0x60	; 96
    1264:	f6 e0       	ldi	r31, 0x06	; 6
    1266:	91 83       	std	Z+1, r25	; 0x01
	//PIN1 -->
	//PIN2 -->SONAR2_ECHO
	//PIN3 -->SONAR2_TRIG
	//PIN4 -->SONAR1_ECHO
	//PIN5 -->SONAR1_TRIG
	PORTD.DIRCLR = PIN6_bm;//PIN6 -->EDGE_SENS_4
    1268:	32 83       	std	Z+2, r19	; 0x02
	
	PORTD.PIN6CTRL  =    PORT_ISC_FALLING_gc;//|PORT_OPC_PULLDOWN_gc;
    126a:	86 8b       	std	Z+22, r24	; 0x16
	PORTD.INT0MASK  =    PIN6_bm;
    126c:	32 87       	std	Z+10, r19	; 0x0a
	
	PORTD.DIRCLR = PIN7_bm;//PIN7 -->EDGE_SENS_3
    126e:	22 83       	std	Z+2, r18	; 0x02
	
	PORTD.PIN7CTRL  =    PORT_ISC_FALLING_gc;//|PORT_OPC_PULLDOWN_gc;
    1270:	87 8b       	std	Z+23, r24	; 0x17
	PORTD.INT1MASK  =    PIN7_bm;
    1272:	23 87       	std	Z+11, r18	; 0x0b
	PORTD.INTCTRL   =    PORT_INT0LVL_MED_gc|PORT_INT1LVL_MED_gc;
    1274:	a1 87       	std	Z+9, r26	; 0x09

	// --------------PORTE--------------
	PORTE.DIRCLR    =    PIN0_bm;//PIN0 -->EDGE_SENS_2
    1276:	e0 e8       	ldi	r30, 0x80	; 128
    1278:	f6 e0       	ldi	r31, 0x06	; 6
    127a:	92 83       	std	Z+2, r25	; 0x02
	
	PORTE.PIN6CTRL  =    PORT_ISC_FALLING_gc;//|PORT_OPC_PULLDOWN_gc;
    127c:	86 8b       	std	Z+22, r24	; 0x16
	PORTE.INT0MASK  =    PIN0_bm;
    127e:	92 87       	std	Z+10, r25	; 0x0a
	
	PORTE.DIRCLR    =    PIN1_bm;//PIN1 -->EDGE_SENS_1
    1280:	82 83       	std	Z+2, r24	; 0x02
	
	PORTE.PIN1CTRL  =    PORT_ISC_FALLING_gc;//|PORT_OPC_PULLDOWN_gc;
    1282:	81 8b       	std	Z+17, r24	; 0x11
	PORTE.INT1MASK  =    PIN1_bm;
    1284:	83 87       	std	Z+11, r24	; 0x0b
	PORTE.INTCTRL   =    PORT_INT0LVL_MED_gc|PORT_INT1LVL_MED_gc;
    1286:	a1 87       	std	Z+9, r26	; 0x09
	
	PORTE.DIRSET    =    PIN2_bm;//PIN2 -->DISP_RST
    1288:	61 83       	std	Z+1, r22	; 0x01
	PORTE.DIRSET    =    PIN3_bm;//PIN3 -->DISP_D/C
    128a:	51 83       	std	Z+1, r21	; 0x01
	PORTE.DIRSET    =    PIN4_bm;//PIN4 -->DISP_SS
    128c:	71 83       	std	Z+1, r23	; 0x01
	PORTE.DIRSET    =    PIN5_bm;//PIN5 -->DISP_MOSI
    128e:	41 83       	std	Z+1, r20	; 0x01
	//PIN6 -->
	PORTE.DIRSET    =    PIN7_bm;//PIN7 -->DISP_SCK
    1290:	21 83       	std	Z+1, r18	; 0x01
	// --------------PORTF--------------
	PORTF.DIRSET    =    PIN0_bm; // BUZZER
    1292:	e0 ea       	ldi	r30, 0xA0	; 160
    1294:	f6 e0       	ldi	r31, 0x06	; 6
    1296:	91 83       	std	Z+1, r25	; 0x01
	PORTF.DIRSET    =    PIN1_bm; // LED
    1298:	81 83       	std	Z+1, r24	; 0x01
	PORTF.DIRSET    =    PIN2_bm; // LED
    129a:	61 83       	std	Z+1, r22	; 0x01
	PORTF.DIRSET    =    PIN3_bm; // LED
    129c:	51 83       	std	Z+1, r21	; 0x01
	PORTF.DIRSET    =    PIN4_bm; // LED
    129e:	71 83       	std	Z+1, r23	; 0x01
	PORTF.DIRSET    =    PIN5_bm; // LED
    12a0:	41 83       	std	Z+1, r20	; 0x01
	PORTF.DIRSET    =    PIN6_bm; // LED
    12a2:	31 83       	std	Z+1, r19	; 0x01
	PORTF.DIRSET    =    PIN7_bm; // LED
    12a4:	21 83       	std	Z+1, r18	; 0x01
    12a6:	08 95       	ret

000012a8 <BUTTON_status>:
	//------------------------------------------------------------------------------------------
}
ButtonStatus BUTTON_status(uint8_t input,uint8_t select)
{
	static uint8_t button[10]={0,0,0,0,0,0,0,0,0};
	button[select]<<=1;
    12a8:	70 e0       	ldi	r23, 0x00	; 0
    12aa:	fb 01       	movw	r30, r22
    12ac:	e8 5d       	subi	r30, 0xD8	; 216
    12ae:	fe 4d       	sbci	r31, 0xDE	; 222
    12b0:	90 81       	ld	r25, Z
    12b2:	99 0f       	add	r25, r25
	if(input){
    12b4:	81 11       	cpse	r24, r1
    12b6:	05 c0       	rjmp	.+10     	; 0x12c2 <BUTTON_status+0x1a>
	//------------------------------------------------------------------------------------------
}
ButtonStatus BUTTON_status(uint8_t input,uint8_t select)
{
	static uint8_t button[10]={0,0,0,0,0,0,0,0,0};
	button[select]<<=1;
    12b8:	fb 01       	movw	r30, r22
    12ba:	e8 5d       	subi	r30, 0xD8	; 216
    12bc:	fe 4d       	sbci	r31, 0xDE	; 222
    12be:	90 83       	st	Z, r25
    12c0:	05 c0       	rjmp	.+10     	; 0x12cc <BUTTON_status+0x24>
	if(input){
		button[select]|=0x01;
    12c2:	fb 01       	movw	r30, r22
    12c4:	e8 5d       	subi	r30, 0xD8	; 216
    12c6:	fe 4d       	sbci	r31, 0xDE	; 222
    12c8:	91 60       	ori	r25, 0x01	; 1
    12ca:	90 83       	st	Z, r25
	}
	if(button[select]==0x7f){
    12cc:	fb 01       	movw	r30, r22
    12ce:	e8 5d       	subi	r30, 0xD8	; 216
    12d0:	fe 4d       	sbci	r31, 0xDE	; 222
    12d2:	80 81       	ld	r24, Z
    12d4:	8f 37       	cpi	r24, 0x7F	; 127
    12d6:	31 f0       	breq	.+12     	; 0x12e4 <BUTTON_status+0x3c>
		return BUTTON_RISING_EDGE;
	}
	if(button[select]==0xfe){
    12d8:	8e 3f       	cpi	r24, 0xFE	; 254
    12da:	31 f0       	breq	.+12     	; 0x12e8 <BUTTON_status+0x40>
		return BUTTON_FALLING_EDGE;
	}
	if(button[select]>0){
    12dc:	88 23       	and	r24, r24
    12de:	31 f0       	breq	.+12     	; 0x12ec <BUTTON_status+0x44>
		return BUTTON_PUSH;
    12e0:	81 e0       	ldi	r24, 0x01	; 1
    12e2:	08 95       	ret
	button[select]<<=1;
	if(input){
		button[select]|=0x01;
	}
	if(button[select]==0x7f){
		return BUTTON_RISING_EDGE;
    12e4:	80 e0       	ldi	r24, 0x00	; 0
    12e6:	08 95       	ret
	}
	if(button[select]==0xfe){
		return BUTTON_FALLING_EDGE;
    12e8:	83 e0       	ldi	r24, 0x03	; 3
    12ea:	08 95       	ret
	}
	if(button[select]>0){
		return BUTTON_PUSH;
	}
	return BUTTON_RELEASE;
    12ec:	82 e0       	ldi	r24, 0x02	; 2
}
    12ee:	08 95       	ret

000012f0 <ATTACK>:
uint8_t ATTACK(void)
{
    12f0:	0f 93       	push	r16
    12f2:	1f 93       	push	r17
    12f4:	cf 93       	push	r28
    12f6:	df 93       	push	r29
	SENS_FLAG_s.LINE_RIGHT=0;
    12f8:	80 91 5b 21 	lds	r24, 0x215B
    12fc:	8f 7d       	andi	r24, 0xDF	; 223
    12fe:	80 93 5b 21 	sts	0x215B, r24
	SENS_FLAG_s.LINE_LEFT=0;
    1302:	80 91 5b 21 	lds	r24, 0x215B
    1306:	8f 7e       	andi	r24, 0xEF	; 239
    1308:	80 93 5b 21 	sts	0x215B, r24
	BUZZ_beep(50);
    130c:	82 e3       	ldi	r24, 0x32	; 50
    130e:	90 e0       	ldi	r25, 0x00	; 0
    1310:	43 df       	rcall	.-378    	; 0x1198 <BUZZ_beep>
	
	MOT_go_forward(80);
    1312:	80 e5       	ldi	r24, 0x50	; 80
    1314:	5d de       	rcall	.-838    	; 0xfd0 <MOT_go_forward>
	IGNEORE_SENS_s.SHARP_DIGIT = read_rtc_time();
    1316:	2b df       	rcall	.-426    	; 0x116e <read_rtc_time>
    1318:	60 93 47 21 	sts	0x2147, r22
    131c:	70 93 48 21 	sts	0x2148, r23
    1320:	80 93 49 21 	sts	0x2149, r24
    1324:	90 93 4a 21 	sts	0x214A, r25
	while( read_rtc_time()-IGNEORE_SENS_s.SHARP_DIGIT<10000 && SENS_FLAG_s.LINE_LEFT==0 && SENS_FLAG_s.LINE_RIGHT==0);
    1328:	c7 e4       	ldi	r28, 0x47	; 71
    132a:	d1 e2       	ldi	r29, 0x21	; 33
    132c:	20 df       	rcall	.-448    	; 0x116e <read_rtc_time>
    132e:	08 81       	ld	r16, Y
    1330:	19 81       	ldd	r17, Y+1	; 0x01
    1332:	2a 81       	ldd	r18, Y+2	; 0x02
    1334:	3b 81       	ldd	r19, Y+3	; 0x03
    1336:	dc 01       	movw	r26, r24
    1338:	cb 01       	movw	r24, r22
    133a:	80 1b       	sub	r24, r16
    133c:	91 0b       	sbc	r25, r17
    133e:	a2 0b       	sbc	r26, r18
    1340:	b3 0b       	sbc	r27, r19
    1342:	80 31       	cpi	r24, 0x10	; 16
    1344:	97 42       	sbci	r25, 0x27	; 39
    1346:	a1 05       	cpc	r26, r1
    1348:	b1 05       	cpc	r27, r1
    134a:	40 f4       	brcc	.+16     	; 0x135c <ATTACK+0x6c>
    134c:	80 91 5b 21 	lds	r24, 0x215B
    1350:	84 fd       	sbrc	r24, 4
    1352:	04 c0       	rjmp	.+8      	; 0x135c <ATTACK+0x6c>
    1354:	80 91 5b 21 	lds	r24, 0x215B
    1358:	85 ff       	sbrs	r24, 5
    135a:	e8 cf       	rjmp	.-48     	; 0x132c <ATTACK+0x3c>
    135c:	8f ef       	ldi	r24, 0xFF	; 255
    135e:	97 ea       	ldi	r25, 0xA7	; 167
    1360:	21 e6       	ldi	r18, 0x61	; 97
    1362:	81 50       	subi	r24, 0x01	; 1
    1364:	90 40       	sbci	r25, 0x00	; 0
    1366:	20 40       	sbci	r18, 0x00	; 0
    1368:	e1 f7       	brne	.-8      	; 0x1362 <ATTACK+0x72>
    136a:	00 c0       	rjmp	.+0      	; 0x136c <ATTACK+0x7c>
    136c:	00 00       	nop
	_delay_ms(1000);
	MOT_brake();
    136e:	1d de       	rcall	.-966    	; 0xfaa <MOT_brake>
	GP_FLAGS_s.START_STOP=0;
    1370:	80 91 42 21 	lds	r24, 0x2142
    1374:	8e 7f       	andi	r24, 0xFE	; 254
    1376:	80 93 42 21 	sts	0x2142, r24
	// 	{
	// 		MOT_brake();
	// 		FLAGS_clear_all();
	// 		return ATK_FAIL;
	// 	}
}
    137a:	df 91       	pop	r29
    137c:	cf 91       	pop	r28
    137e:	1f 91       	pop	r17
    1380:	0f 91       	pop	r16
    1382:	08 95       	ret

00001384 <FLAGS_clear_all>:
void FLAGS_clear_all(void)
{
	SENS_FLAG_s.LINE_RIGHT=0; // clear all flags
    1384:	80 91 5b 21 	lds	r24, 0x215B
    1388:	8f 7d       	andi	r24, 0xDF	; 223
    138a:	80 93 5b 21 	sts	0x215B, r24
	SENS_FLAG_s.LINE_LEFT=0;
    138e:	80 91 5b 21 	lds	r24, 0x215B
    1392:	8f 7e       	andi	r24, 0xEF	; 239
    1394:	80 93 5b 21 	sts	0x215B, r24
	SENS_FLAG_s.SHARP_DIGIT=0;
    1398:	80 91 5b 21 	lds	r24, 0x215B
    139c:	8e 7f       	andi	r24, 0xFE	; 254
    139e:	80 93 5b 21 	sts	0x215B, r24
	SENS_FLAG_s.SHARP_A_FRONT=0;
    13a2:	80 91 5b 21 	lds	r24, 0x215B
    13a6:	8d 7f       	andi	r24, 0xFD	; 253
    13a8:	80 93 5b 21 	sts	0x215B, r24
	SENS_FLAG_s.SHARP_A_LEFT=0;
    13ac:	80 91 5b 21 	lds	r24, 0x215B
    13b0:	8b 7f       	andi	r24, 0xFB	; 251
    13b2:	80 93 5b 21 	sts	0x215B, r24
	SENS_FLAG_s.SHARP_A_RIGHT=0;
    13b6:	80 91 5b 21 	lds	r24, 0x215B
    13ba:	87 7f       	andi	r24, 0xF7	; 247
    13bc:	80 93 5b 21 	sts	0x215B, r24
    13c0:	08 95       	ret

000013c2 <Wait_5_sec>:
    13c2:	2f ef       	ldi	r18, 0xFF	; 255
    13c4:	87 ea       	ldi	r24, 0xA7	; 167
    13c6:	91 e6       	ldi	r25, 0x61	; 97
    13c8:	21 50       	subi	r18, 0x01	; 1
    13ca:	80 40       	sbci	r24, 0x00	; 0
    13cc:	90 40       	sbci	r25, 0x00	; 0
    13ce:	e1 f7       	brne	.-8      	; 0x13c8 <Wait_5_sec+0x6>
    13d0:	00 c0       	rjmp	.+0      	; 0x13d2 <Wait_5_sec+0x10>
    13d2:	00 00       	nop
}
void Wait_5_sec(void){
	_delay_ms(1000);
	BUZZ_beep(50);
    13d4:	82 e3       	ldi	r24, 0x32	; 50
    13d6:	90 e0       	ldi	r25, 0x00	; 0
    13d8:	df de       	rcall	.-578    	; 0x1198 <BUZZ_beep>
    13da:	2f ef       	ldi	r18, 0xFF	; 255
    13dc:	87 ea       	ldi	r24, 0xA7	; 167
    13de:	91 e6       	ldi	r25, 0x61	; 97
    13e0:	21 50       	subi	r18, 0x01	; 1
    13e2:	80 40       	sbci	r24, 0x00	; 0
    13e4:	90 40       	sbci	r25, 0x00	; 0
    13e6:	e1 f7       	brne	.-8      	; 0x13e0 <Wait_5_sec+0x1e>
    13e8:	00 c0       	rjmp	.+0      	; 0x13ea <Wait_5_sec+0x28>
    13ea:	00 00       	nop
	_delay_ms(1000);
	BUZZ_beep(50);
    13ec:	82 e3       	ldi	r24, 0x32	; 50
    13ee:	90 e0       	ldi	r25, 0x00	; 0
    13f0:	d3 de       	rcall	.-602    	; 0x1198 <BUZZ_beep>
    13f2:	2f ef       	ldi	r18, 0xFF	; 255
    13f4:	87 ea       	ldi	r24, 0xA7	; 167
    13f6:	91 e6       	ldi	r25, 0x61	; 97
    13f8:	21 50       	subi	r18, 0x01	; 1
    13fa:	80 40       	sbci	r24, 0x00	; 0
    13fc:	90 40       	sbci	r25, 0x00	; 0
    13fe:	e1 f7       	brne	.-8      	; 0x13f8 <Wait_5_sec+0x36>
    1400:	00 c0       	rjmp	.+0      	; 0x1402 <Wait_5_sec+0x40>
    1402:	00 00       	nop
	_delay_ms(1000);
	BUZZ_beep(50);
    1404:	82 e3       	ldi	r24, 0x32	; 50
    1406:	90 e0       	ldi	r25, 0x00	; 0
    1408:	c7 de       	rcall	.-626    	; 0x1198 <BUZZ_beep>
    140a:	2f ef       	ldi	r18, 0xFF	; 255
    140c:	87 ea       	ldi	r24, 0xA7	; 167
    140e:	91 e6       	ldi	r25, 0x61	; 97
    1410:	21 50       	subi	r18, 0x01	; 1
    1412:	80 40       	sbci	r24, 0x00	; 0
    1414:	90 40       	sbci	r25, 0x00	; 0
    1416:	e1 f7       	brne	.-8      	; 0x1410 <Wait_5_sec+0x4e>
    1418:	00 c0       	rjmp	.+0      	; 0x141a <Wait_5_sec+0x58>
    141a:	00 00       	nop
	_delay_ms(1000);
	BUZZ_beep(50);
    141c:	82 e3       	ldi	r24, 0x32	; 50
    141e:	90 e0       	ldi	r25, 0x00	; 0
    1420:	bb de       	rcall	.-650    	; 0x1198 <BUZZ_beep>
    1422:	2f ef       	ldi	r18, 0xFF	; 255
    1424:	87 ea       	ldi	r24, 0xA7	; 167
    1426:	91 e6       	ldi	r25, 0x61	; 97
    1428:	21 50       	subi	r18, 0x01	; 1
    142a:	80 40       	sbci	r24, 0x00	; 0
    142c:	90 40       	sbci	r25, 0x00	; 0
    142e:	e1 f7       	brne	.-8      	; 0x1428 <Wait_5_sec+0x66>
    1430:	00 c0       	rjmp	.+0      	; 0x1432 <Wait_5_sec+0x70>
    1432:	00 00       	nop
	_delay_ms(1000);
	BUZZ_beep(100); // 5s delay
    1434:	84 e6       	ldi	r24, 0x64	; 100
    1436:	90 e0       	ldi	r25, 0x00	; 0
    1438:	af ce       	rjmp	.-674    	; 0x1198 <BUZZ_beep>
    143a:	08 95       	ret

0000143c <main>:
#include "Includes.h"

int main(void)
{
	init_OSC_PLL(PLL_FACT);
    143c:	88 e0       	ldi	r24, 0x08	; 8
    143e:	54 de       	rcall	.-856    	; 0x10e8 <init_OSC_PLL>
	init_PORTS();
    1440:	dc de       	rcall	.-584    	; 0x11fa <init_PORTS>
	init_USART_C0();
    1442:	18 d4       	rcall	.+2096   	; 0x1c74 <init_USART_C0>
	init_ADC();
    1444:	99 d9       	rcall	.-3278   	; 0x778 <init_ADC>
	init_SPI_LCD();
    1446:	f2 d9       	rcall	.-3100   	; 0x82c <init_SPI_LCD>
	init_MOT_PWM();
    1448:	88 dd       	rcall	.-1264   	; 0xf5a <init_MOT_PWM>
	init_TIM_0E();
    144a:	85 de       	rcall	.-758    	; 0x1156 <init_TIM_0E>
	init_TIM_0F();
    144c:	78 de       	rcall	.-784    	; 0x113e <init_TIM_0F>
	init_RTC();
    144e:	b4 de       	rcall	.-664    	; 0x11b8 <init_RTC>
	init_PMIC();
    1450:	ad de       	rcall	.-678    	; 0x11ac <init_PMIC>
	BUZZ_beep(200);
    1452:	88 ec       	ldi	r24, 0xC8	; 200
    1454:	90 e0       	ldi	r25, 0x00	; 0
    1456:	a0 de       	rcall	.-704    	; 0x1198 <BUZZ_beep>
	init_LCD();
    1458:	f5 dc       	rcall	.-1558   	; 0xe44 <init_LCD>
	GP_FLAGS_s.MODE =MODE_STANDARD;
    145a:	80 91 42 21 	lds	r24, 0x2142
    145e:	81 7f       	andi	r24, 0xF1	; 241
    1460:	84 60       	ori	r24, 0x04	; 4
    1462:	80 93 42 21 	sts	0x2142, r24
	SENS_FLAG_s.SHARP_DIGIT=0;
    1466:	80 91 5b 21 	lds	r24, 0x215B
    146a:	8e 7f       	andi	r24, 0xFE	; 254
    146c:	80 93 5b 21 	sts	0x215B, r24
	GP_FLAGS_s.FIRST_TURN=1;
    1470:	80 91 42 21 	lds	r24, 0x2142
    1474:	80 61       	ori	r24, 0x10	; 16
    1476:	80 93 42 21 	sts	0x2142, r24
					MOT_turn_45_deg(DIR_LEFT);
					SENS_FLAG_s.SHARP_A_LEFT=0;
					IGNEORE_SENS_s.SHARP_A_LEFT = read_rtc_time();
				}
				
				if (SENS_FLAG_s.SHARP_A_RIGHT==1 && read_rtc_time()-IGNEORE_SENS_s.SHARP_A_RIGHT>100)// && SENS_FLAG_s.LINE_LEFT==0 && SENS_FLAG_s.LINE_RIGHT==0)
    147a:	0f 2e       	mov	r0, r31
    147c:	f3 e5       	ldi	r31, 0x53	; 83
    147e:	af 2e       	mov	r10, r31
    1480:	f1 e2       	ldi	r31, 0x21	; 33
    1482:	bf 2e       	mov	r11, r31
    1484:	f0 2d       	mov	r31, r0
					SENS_FLAG_s.SHARP_A_FRONT=0;
				}
				
				// to dac to wew petli od frontu bo nie mozemy skerecec podczas wolnej jazdy
				
				if (SENS_FLAG_s.SHARP_A_LEFT==1 && read_rtc_time()-IGNEORE_SENS_s.SHARP_A_LEFT>100) //&& SENS_FLAG_s.LINE_LEFT==0 && SENS_FLAG_s.LINE_RIGHT==0) // czy to nie musi byc przed frontowym?
    1486:	0f 2e       	mov	r0, r31
    1488:	ff e4       	ldi	r31, 0x4F	; 79
    148a:	8f 2e       	mov	r8, r31
    148c:	f1 e2       	ldi	r31, 0x21	; 33
    148e:	9f 2e       	mov	r9, r31
    1490:	f0 2d       	mov	r31, r0
				
				
				if (SENS_FLAG_s.SHARP_A_FRONT==1)
				{
					MOT_brake();
					IGNEORE_SENS_s.SHARP_A_FRONT = read_rtc_time();
    1492:	cb e4       	ldi	r28, 0x4B	; 75
    1494:	d1 e2       	ldi	r29, 0x21	; 33
					while(read_rtc_time()-IGNEORE_SENS_s.SHARP_A_FRONT <50 && ANALOG_SHARP_FRONT_CHECK);
    1496:	0f 2e       	mov	r0, r31
    1498:	f0 e4       	ldi	r31, 0x40	; 64
    149a:	4f 2e       	mov	r4, r31
    149c:	f6 e0       	ldi	r31, 0x06	; 6
    149e:	5f 2e       	mov	r5, r31
    14a0:	f0 2d       	mov	r31, r0
					while(read_rtc_time()-IGNEORE_SENS_s.SHARP_A_FRONT <650 && ANALOG_SHARP_FRONT_CHECK)
					{
						if (SENS_FLAG_s.SHARP_DIGIT==1)
						{
							MOT_go_forward(40);
							IGNEORE_SENS_s.SHARP_DIGIT = read_rtc_time();
    14a2:	0f 2e       	mov	r0, r31
    14a4:	f7 e4       	ldi	r31, 0x47	; 71
    14a6:	cf 2e       	mov	r12, r31
    14a8:	f1 e2       	ldi	r31, 0x21	; 33
    14aa:	df 2e       	mov	r13, r31
    14ac:	f0 2d       	mov	r31, r0
							while (read_rtc_time()-IGNEORE_SENS_s.SHARP_DIGIT <350)
							{
								if (DIGITAL_SHARP_CHECK_NEG)
    14ae:	0f 2e       	mov	r0, r31
    14b0:	61 2c       	mov	r6, r1
    14b2:	f6 e0       	ldi	r31, 0x06	; 6
    14b4:	7f 2e       	mov	r7, r31
    14b6:	f0 2d       	mov	r31, r0
					SENS_FLAG_s.LINE_LEFT=0;
					IGNEORE_SENS_s.LINE = read_rtc_time();
					BUZZ_beep(10);
				}
				
				if (SENS_FLAG_s.LINE_LEFT==1 && read_rtc_time()-IGNEORE_SENS_s.LINE>250) // line sense escape + delay
    14b8:	0f 2e       	mov	r0, r31
    14ba:	f7 e5       	ldi	r31, 0x57	; 87
    14bc:	ef 2e       	mov	r14, r31
    14be:	f1 e2       	ldi	r31, 0x21	; 33
    14c0:	ff 2e       	mov	r15, r31
    14c2:	f0 2d       	mov	r31, r0
	
	uint32_t start=0;

	while(1)
	{
		LCD_menu_handle();
    14c4:	f8 da       	rcall	.-2576   	; 0xab6 <LCD_menu_handle>
		if (GP_FLAGS_s.START_STOP == 1)
    14c6:	80 91 42 21 	lds	r24, 0x2142
    14ca:	80 ff       	sbrs	r24, 0
    14cc:	4d c2       	rjmp	.+1178   	; 0x1968 <main+0x52c>
		{
			switch (GP_FLAGS_s.MODE)
    14ce:	80 91 42 21 	lds	r24, 0x2142
    14d2:	86 95       	lsr	r24
    14d4:	87 70       	andi	r24, 0x07	; 7
    14d6:	82 30       	cpi	r24, 0x02	; 2
    14d8:	a9 f7       	brne	.-22     	; 0x14c4 <main+0x88>
				break;
				
				case MODE_STANDARD :
				
				//----------first rotate
				if(GP_FLAGS_s.FIRST_TURN==1)
    14da:	80 91 42 21 	lds	r24, 0x2142
    14de:	84 ff       	sbrs	r24, 4
    14e0:	4d c0       	rjmp	.+154    	; 0x157c <main+0x140>
				{
					Wait_5_sec();
    14e2:	6f df       	rcall	.-290    	; 0x13c2 <Wait_5_sec>
					MOT_turn_right(30);
    14e4:	8e e1       	ldi	r24, 0x1E	; 30
    14e6:	b0 dd       	rcall	.-1184   	; 0x1048 <MOT_turn_right>
    14e8:	2f ef       	ldi	r18, 0xFF	; 255
    14ea:	81 ee       	ldi	r24, 0xE1	; 225
    14ec:	94 e0       	ldi	r25, 0x04	; 4
    14ee:	21 50       	subi	r18, 0x01	; 1
    14f0:	80 40       	sbci	r24, 0x00	; 0
    14f2:	90 40       	sbci	r25, 0x00	; 0
    14f4:	e1 f7       	brne	.-8      	; 0x14ee <main+0xb2>
    14f6:	00 c0       	rjmp	.+0      	; 0x14f8 <main+0xbc>
    14f8:	00 00       	nop
					_delay_ms(50); // opoznienie dla klapki
					IGNEORE_SENS_s.SHARP_A_FRONT  = read_rtc_time();
    14fa:	39 de       	rcall	.-910    	; 0x116e <read_rtc_time>
    14fc:	68 83       	st	Y, r22
    14fe:	79 83       	std	Y+1, r23	; 0x01
    1500:	8a 83       	std	Y+2, r24	; 0x02
    1502:	9b 83       	std	Y+3, r25	; 0x03
					while(read_rtc_time()-IGNEORE_SENS_s.SHARP_A_FRONT <650 && (SENS_FLAG_s.LINE_LEFT==0 && SENS_FLAG_s.LINE_RIGHT==0))
    1504:	15 c0       	rjmp	.+42     	; 0x1530 <main+0xf4>
					{
						if (SENS_FLAG_s.SHARP_A_FRONT==1||SENS_FLAG_s.SHARP_DIGIT==1)
    1506:	80 91 5b 21 	lds	r24, 0x215B
    150a:	81 fd       	sbrc	r24, 1
    150c:	04 c0       	rjmp	.+8      	; 0x1516 <main+0xda>
    150e:	80 91 5b 21 	lds	r24, 0x215B
    1512:	80 ff       	sbrs	r24, 0
    1514:	0d c0       	rjmp	.+26     	; 0x1530 <main+0xf4>
						{
							MOT_go_forward(40);
    1516:	88 e2       	ldi	r24, 0x28	; 40
    1518:	5b dd       	rcall	.-1354   	; 0xfd0 <MOT_go_forward>
							SENS_FLAG_s.SHARP_A_LEFT=0;
    151a:	80 91 5b 21 	lds	r24, 0x215B
    151e:	8b 7f       	andi	r24, 0xFB	; 251
    1520:	80 93 5b 21 	sts	0x215B, r24
							SENS_FLAG_s.SHARP_A_RIGHT=0;
    1524:	80 91 5b 21 	lds	r24, 0x215B
    1528:	87 7f       	andi	r24, 0xF7	; 247
    152a:	80 93 5b 21 	sts	0x215B, r24
							break;
    152e:	18 c0       	rjmp	.+48     	; 0x1560 <main+0x124>
				{
					Wait_5_sec();
					MOT_turn_right(30);
					_delay_ms(50); // opoznienie dla klapki
					IGNEORE_SENS_s.SHARP_A_FRONT  = read_rtc_time();
					while(read_rtc_time()-IGNEORE_SENS_s.SHARP_A_FRONT <650 && (SENS_FLAG_s.LINE_LEFT==0 && SENS_FLAG_s.LINE_RIGHT==0))
    1530:	1e de       	rcall	.-964    	; 0x116e <read_rtc_time>
    1532:	08 81       	ld	r16, Y
    1534:	19 81       	ldd	r17, Y+1	; 0x01
    1536:	2a 81       	ldd	r18, Y+2	; 0x02
    1538:	3b 81       	ldd	r19, Y+3	; 0x03
    153a:	dc 01       	movw	r26, r24
    153c:	cb 01       	movw	r24, r22
    153e:	80 1b       	sub	r24, r16
    1540:	91 0b       	sbc	r25, r17
    1542:	a2 0b       	sbc	r26, r18
    1544:	b3 0b       	sbc	r27, r19
    1546:	8a 38       	cpi	r24, 0x8A	; 138
    1548:	92 40       	sbci	r25, 0x02	; 2
    154a:	a1 05       	cpc	r26, r1
    154c:	b1 05       	cpc	r27, r1
    154e:	40 f4       	brcc	.+16     	; 0x1560 <main+0x124>
    1550:	80 91 5b 21 	lds	r24, 0x215B
    1554:	84 fd       	sbrc	r24, 4
    1556:	04 c0       	rjmp	.+8      	; 0x1560 <main+0x124>
    1558:	80 91 5b 21 	lds	r24, 0x215B
    155c:	85 ff       	sbrs	r24, 5
    155e:	d3 cf       	rjmp	.-90     	; 0x1506 <main+0xca>
							SENS_FLAG_s.SHARP_A_LEFT=0;
							SENS_FLAG_s.SHARP_A_RIGHT=0;
							break;
						}
					}
					if (SENS_FLAG_s.SHARP_A_FRONT==0 && SENS_FLAG_s.SHARP_DIGIT==0)
    1560:	80 91 5b 21 	lds	r24, 0x215B
    1564:	81 fd       	sbrc	r24, 1
    1566:	04 c0       	rjmp	.+8      	; 0x1570 <main+0x134>
    1568:	80 91 5b 21 	lds	r24, 0x215B
    156c:	80 ff       	sbrs	r24, 0
					{
						MOT_brake();
    156e:	1d dd       	rcall	.-1478   	; 0xfaa <MOT_brake>
					}
					GP_FLAGS_s.FIRST_TURN=0;
    1570:	80 91 42 21 	lds	r24, 0x2142
    1574:	8f 7e       	andi	r24, 0xEF	; 239
    1576:	80 93 42 21 	sts	0x2142, r24
    157a:	02 c0       	rjmp	.+4      	; 0x1580 <main+0x144>
				}
				else
				{
					MOT_go_forward(40);
    157c:	88 e2       	ldi	r24, 0x28	; 40
    157e:	28 dd       	rcall	.-1456   	; 0xfd0 <MOT_go_forward>
				}
				
				//----------------------------------------------------------------LINE::::---->>>>>

				
				if ((SENS_FLAG_s.LINE_LEFT==1 && SENS_FLAG_s.LINE_RIGHT==1)&&read_rtc_time()-IGNEORE_SENS_s.LINE>250) // line sense escape + delay
    1580:	80 91 5b 21 	lds	r24, 0x215B
    1584:	84 ff       	sbrs	r24, 4
    1586:	4c c0       	rjmp	.+152    	; 0x1620 <main+0x1e4>
    1588:	80 91 5b 21 	lds	r24, 0x215B
    158c:	85 ff       	sbrs	r24, 5
    158e:	48 c0       	rjmp	.+144    	; 0x1620 <main+0x1e4>
    1590:	ee dd       	rcall	.-1060   	; 0x116e <read_rtc_time>
    1592:	f7 01       	movw	r30, r14
    1594:	00 81       	ld	r16, Z
    1596:	11 81       	ldd	r17, Z+1	; 0x01
    1598:	22 81       	ldd	r18, Z+2	; 0x02
    159a:	33 81       	ldd	r19, Z+3	; 0x03
    159c:	dc 01       	movw	r26, r24
    159e:	cb 01       	movw	r24, r22
    15a0:	80 1b       	sub	r24, r16
    15a2:	91 0b       	sbc	r25, r17
    15a4:	a2 0b       	sbc	r26, r18
    15a6:	b3 0b       	sbc	r27, r19
    15a8:	8b 3f       	cpi	r24, 0xFB	; 251
    15aa:	91 05       	cpc	r25, r1
    15ac:	a1 05       	cpc	r26, r1
    15ae:	b1 05       	cpc	r27, r1
    15b0:	b8 f1       	brcs	.+110    	; 0x1620 <main+0x1e4>
				{
					MOT_brake();
    15b2:	fb dc       	rcall	.-1546   	; 0xfaa <MOT_brake>
    15b4:	ff ef       	ldi	r31, 0xFF	; 255
    15b6:	23 ef       	ldi	r18, 0xF3	; 243
    15b8:	81 e0       	ldi	r24, 0x01	; 1
    15ba:	f1 50       	subi	r31, 0x01	; 1
    15bc:	20 40       	sbci	r18, 0x00	; 0
    15be:	80 40       	sbci	r24, 0x00	; 0
    15c0:	e1 f7       	brne	.-8      	; 0x15ba <main+0x17e>
    15c2:	00 c0       	rjmp	.+0      	; 0x15c4 <main+0x188>
    15c4:	00 00       	nop
    15c6:	10 e0       	ldi	r17, 0x00	; 0
					_delay_ms(20);
					//MOT_go_backward(90);
					
					for (uint16_t i=0;i<100;i++)
					{
						MOT_go_backward(i);
    15c8:	81 2f       	mov	r24, r17
    15ca:	16 dd       	rcall	.-1492   	; 0xff8 <MOT_go_backward>
    15cc:	ef e3       	ldi	r30, 0x3F	; 63
    15ce:	ff e1       	ldi	r31, 0x1F	; 31
    15d0:	31 97       	sbiw	r30, 0x01	; 1
    15d2:	f1 f7       	brne	.-4      	; 0x15d0 <main+0x194>
    15d4:	00 c0       	rjmp	.+0      	; 0x15d6 <main+0x19a>
    15d6:	00 00       	nop
    15d8:	1f 5f       	subi	r17, 0xFF	; 255
				{
					MOT_brake();
					_delay_ms(20);
					//MOT_go_backward(90);
					
					for (uint16_t i=0;i<100;i++)
    15da:	14 36       	cpi	r17, 0x64	; 100
    15dc:	a9 f7       	brne	.-22     	; 0x15c8 <main+0x18c>
					{
						MOT_go_backward(i);
						_delay_ms(1);
					}
					MOT_go_backward(90);
    15de:	8a e5       	ldi	r24, 0x5A	; 90
    15e0:	0b dd       	rcall	.-1514   	; 0xff8 <MOT_go_backward>
    15e2:	ff ef       	ldi	r31, 0xFF	; 255
    15e4:	2b ed       	ldi	r18, 0xDB	; 219
    15e6:	85 e0       	ldi	r24, 0x05	; 5
    15e8:	f1 50       	subi	r31, 0x01	; 1
    15ea:	20 40       	sbci	r18, 0x00	; 0
    15ec:	80 40       	sbci	r24, 0x00	; 0
    15ee:	e1 f7       	brne	.-8      	; 0x15e8 <main+0x1ac>
    15f0:	00 c0       	rjmp	.+0      	; 0x15f2 <main+0x1b6>
    15f2:	00 00       	nop
					_delay_ms(60);
					MOT_brake();
    15f4:	da dc       	rcall	.-1612   	; 0xfaa <MOT_brake>
					
					MOT_turn_180_deg(DIR_RIGHT);
    15f6:	82 e0       	ldi	r24, 0x02	; 2
    15f8:	63 dd       	rcall	.-1338   	; 0x10c0 <MOT_turn_180_deg>
					
					SENS_FLAG_s.LINE_RIGHT=0;
    15fa:	80 91 5b 21 	lds	r24, 0x215B
    15fe:	8f 7d       	andi	r24, 0xDF	; 223
    1600:	80 93 5b 21 	sts	0x215B, r24
					SENS_FLAG_s.LINE_LEFT=0;
    1604:	80 91 5b 21 	lds	r24, 0x215B
    1608:	8f 7e       	andi	r24, 0xEF	; 239
    160a:	80 93 5b 21 	sts	0x215B, r24
					IGNEORE_SENS_s.LINE = read_rtc_time();
    160e:	af dd       	rcall	.-1186   	; 0x116e <read_rtc_time>
    1610:	f7 01       	movw	r30, r14
    1612:	60 83       	st	Z, r22
    1614:	71 83       	std	Z+1, r23	; 0x01
    1616:	82 83       	std	Z+2, r24	; 0x02
    1618:	93 83       	std	Z+3, r25	; 0x03
					BUZZ_beep(10);
    161a:	8a e0       	ldi	r24, 0x0A	; 10
    161c:	90 e0       	ldi	r25, 0x00	; 0
    161e:	bc dd       	rcall	.-1160   	; 0x1198 <BUZZ_beep>
				}
				
				if ( SENS_FLAG_s.LINE_RIGHT==1 && read_rtc_time()-IGNEORE_SENS_s.LINE>250) // line sense escape + delay
    1620:	80 91 5b 21 	lds	r24, 0x215B
    1624:	85 ff       	sbrs	r24, 5
    1626:	55 c0       	rjmp	.+170    	; 0x16d2 <main+0x296>
    1628:	a2 dd       	rcall	.-1212   	; 0x116e <read_rtc_time>
    162a:	f7 01       	movw	r30, r14
    162c:	00 81       	ld	r16, Z
    162e:	11 81       	ldd	r17, Z+1	; 0x01
    1630:	22 81       	ldd	r18, Z+2	; 0x02
    1632:	33 81       	ldd	r19, Z+3	; 0x03
    1634:	dc 01       	movw	r26, r24
    1636:	cb 01       	movw	r24, r22
    1638:	80 1b       	sub	r24, r16
    163a:	91 0b       	sbc	r25, r17
    163c:	a2 0b       	sbc	r26, r18
    163e:	b3 0b       	sbc	r27, r19
    1640:	8b 3f       	cpi	r24, 0xFB	; 251
    1642:	91 05       	cpc	r25, r1
    1644:	a1 05       	cpc	r26, r1
    1646:	b1 05       	cpc	r27, r1
    1648:	08 f4       	brcc	.+2      	; 0x164c <main+0x210>
    164a:	43 c0       	rjmp	.+134    	; 0x16d2 <main+0x296>
				{
					MOT_brake();
    164c:	ae dc       	rcall	.-1700   	; 0xfaa <MOT_brake>
    164e:	ff ef       	ldi	r31, 0xFF	; 255
    1650:	23 ef       	ldi	r18, 0xF3	; 243
    1652:	81 e0       	ldi	r24, 0x01	; 1
    1654:	f1 50       	subi	r31, 0x01	; 1
    1656:	20 40       	sbci	r18, 0x00	; 0
    1658:	80 40       	sbci	r24, 0x00	; 0
    165a:	e1 f7       	brne	.-8      	; 0x1654 <main+0x218>
    165c:	00 c0       	rjmp	.+0      	; 0x165e <main+0x222>
    165e:	00 00       	nop
    1660:	10 e0       	ldi	r17, 0x00	; 0
					_delay_ms(20);
					//MOT_go_backward(90);
					
					for (uint16_t i=0;i<100;i++)
					{
						MOT_go_backward(i);
    1662:	81 2f       	mov	r24, r17
    1664:	c9 dc       	rcall	.-1646   	; 0xff8 <MOT_go_backward>
    1666:	ef e3       	ldi	r30, 0x3F	; 63
    1668:	ff e1       	ldi	r31, 0x1F	; 31
    166a:	31 97       	sbiw	r30, 0x01	; 1
    166c:	f1 f7       	brne	.-4      	; 0x166a <main+0x22e>
    166e:	00 c0       	rjmp	.+0      	; 0x1670 <main+0x234>
    1670:	00 00       	nop
    1672:	1f 5f       	subi	r17, 0xFF	; 255
				{
					MOT_brake();
					_delay_ms(20);
					//MOT_go_backward(90);
					
					for (uint16_t i=0;i<100;i++)
    1674:	14 36       	cpi	r17, 0x64	; 100
    1676:	a9 f7       	brne	.-22     	; 0x1662 <main+0x226>
					{
						MOT_go_backward(i);
						_delay_ms(1);
					}
					
					MOT_go_backward(90);
    1678:	8a e5       	ldi	r24, 0x5A	; 90
    167a:	be dc       	rcall	.-1668   	; 0xff8 <MOT_go_backward>
    167c:	ff ef       	ldi	r31, 0xFF	; 255
    167e:	2b ed       	ldi	r18, 0xDB	; 219
    1680:	85 e0       	ldi	r24, 0x05	; 5
    1682:	f1 50       	subi	r31, 0x01	; 1
    1684:	20 40       	sbci	r18, 0x00	; 0
    1686:	80 40       	sbci	r24, 0x00	; 0
    1688:	e1 f7       	brne	.-8      	; 0x1682 <main+0x246>
    168a:	00 c0       	rjmp	.+0      	; 0x168c <main+0x250>
    168c:	00 00       	nop
					_delay_ms(60);
					MOT_brake();
    168e:	8d dc       	rcall	.-1766   	; 0xfaa <MOT_brake>
					
					MOT_turn_90_deg(DIR_LEFT);
    1690:	81 e0       	ldi	r24, 0x01	; 1
    1692:	02 dd       	rcall	.-1532   	; 0x1098 <MOT_turn_90_deg>
					
					MOT_turn_left(50);
    1694:	82 e3       	ldi	r24, 0x32	; 50
    1696:	c4 dc       	rcall	.-1656   	; 0x1020 <MOT_turn_left>
    1698:	9f ef       	ldi	r25, 0xFF	; 255
    169a:	eb ed       	ldi	r30, 0xDB	; 219
    169c:	f5 e0       	ldi	r31, 0x05	; 5
    169e:	91 50       	subi	r25, 0x01	; 1
    16a0:	e0 40       	sbci	r30, 0x00	; 0
    16a2:	f0 40       	sbci	r31, 0x00	; 0
    16a4:	e1 f7       	brne	.-8      	; 0x169e <main+0x262>
    16a6:	00 c0       	rjmp	.+0      	; 0x16a8 <main+0x26c>
    16a8:	00 00       	nop
					_delay_ms(60); // turn a little more
					MOT_brake();
    16aa:	7f dc       	rcall	.-1794   	; 0xfaa <MOT_brake>
					
					SENS_FLAG_s.LINE_RIGHT=0;
    16ac:	80 91 5b 21 	lds	r24, 0x215B
    16b0:	8f 7d       	andi	r24, 0xDF	; 223
    16b2:	80 93 5b 21 	sts	0x215B, r24
					SENS_FLAG_s.LINE_LEFT=0;
    16b6:	80 91 5b 21 	lds	r24, 0x215B
    16ba:	8f 7e       	andi	r24, 0xEF	; 239
    16bc:	80 93 5b 21 	sts	0x215B, r24
					IGNEORE_SENS_s.LINE = read_rtc_time();
    16c0:	56 dd       	rcall	.-1364   	; 0x116e <read_rtc_time>
    16c2:	f7 01       	movw	r30, r14
    16c4:	60 83       	st	Z, r22
    16c6:	71 83       	std	Z+1, r23	; 0x01
    16c8:	82 83       	std	Z+2, r24	; 0x02
    16ca:	93 83       	std	Z+3, r25	; 0x03
					BUZZ_beep(10);
    16cc:	8a e0       	ldi	r24, 0x0A	; 10
    16ce:	90 e0       	ldi	r25, 0x00	; 0
    16d0:	63 dd       	rcall	.-1338   	; 0x1198 <BUZZ_beep>
				}
				
				if (SENS_FLAG_s.LINE_LEFT==1 && read_rtc_time()-IGNEORE_SENS_s.LINE>250) // line sense escape + delay
    16d2:	80 91 5b 21 	lds	r24, 0x215B
    16d6:	84 ff       	sbrs	r24, 4
    16d8:	55 c0       	rjmp	.+170    	; 0x1784 <main+0x348>
    16da:	49 dd       	rcall	.-1390   	; 0x116e <read_rtc_time>
    16dc:	f7 01       	movw	r30, r14
    16de:	00 81       	ld	r16, Z
    16e0:	11 81       	ldd	r17, Z+1	; 0x01
    16e2:	22 81       	ldd	r18, Z+2	; 0x02
    16e4:	33 81       	ldd	r19, Z+3	; 0x03
    16e6:	dc 01       	movw	r26, r24
    16e8:	cb 01       	movw	r24, r22
    16ea:	80 1b       	sub	r24, r16
    16ec:	91 0b       	sbc	r25, r17
    16ee:	a2 0b       	sbc	r26, r18
    16f0:	b3 0b       	sbc	r27, r19
    16f2:	8b 3f       	cpi	r24, 0xFB	; 251
    16f4:	91 05       	cpc	r25, r1
    16f6:	a1 05       	cpc	r26, r1
    16f8:	b1 05       	cpc	r27, r1
    16fa:	08 f4       	brcc	.+2      	; 0x16fe <main+0x2c2>
    16fc:	43 c0       	rjmp	.+134    	; 0x1784 <main+0x348>
				{
					MOT_brake();
    16fe:	55 dc       	rcall	.-1878   	; 0xfaa <MOT_brake>
    1700:	ff ef       	ldi	r31, 0xFF	; 255
    1702:	23 ef       	ldi	r18, 0xF3	; 243
    1704:	81 e0       	ldi	r24, 0x01	; 1
    1706:	f1 50       	subi	r31, 0x01	; 1
    1708:	20 40       	sbci	r18, 0x00	; 0
    170a:	80 40       	sbci	r24, 0x00	; 0
    170c:	e1 f7       	brne	.-8      	; 0x1706 <main+0x2ca>
    170e:	00 c0       	rjmp	.+0      	; 0x1710 <main+0x2d4>
    1710:	00 00       	nop
    1712:	10 e0       	ldi	r17, 0x00	; 0
					_delay_ms(20);
					
					for (uint16_t i=0;i<100;i++)
					{
						MOT_go_backward(i);
    1714:	81 2f       	mov	r24, r17
    1716:	70 dc       	rcall	.-1824   	; 0xff8 <MOT_go_backward>
    1718:	ef e3       	ldi	r30, 0x3F	; 63
    171a:	ff e1       	ldi	r31, 0x1F	; 31
    171c:	31 97       	sbiw	r30, 0x01	; 1
    171e:	f1 f7       	brne	.-4      	; 0x171c <main+0x2e0>
    1720:	00 c0       	rjmp	.+0      	; 0x1722 <main+0x2e6>
    1722:	00 00       	nop
    1724:	1f 5f       	subi	r17, 0xFF	; 255
				if (SENS_FLAG_s.LINE_LEFT==1 && read_rtc_time()-IGNEORE_SENS_s.LINE>250) // line sense escape + delay
				{
					MOT_brake();
					_delay_ms(20);
					
					for (uint16_t i=0;i<100;i++)
    1726:	14 36       	cpi	r17, 0x64	; 100
    1728:	a9 f7       	brne	.-22     	; 0x1714 <main+0x2d8>
					{
						MOT_go_backward(i);
						_delay_ms(1);
					}
					
					MOT_go_backward(90);
    172a:	8a e5       	ldi	r24, 0x5A	; 90
    172c:	65 dc       	rcall	.-1846   	; 0xff8 <MOT_go_backward>
    172e:	ff ef       	ldi	r31, 0xFF	; 255
    1730:	2b ed       	ldi	r18, 0xDB	; 219
    1732:	85 e0       	ldi	r24, 0x05	; 5
    1734:	f1 50       	subi	r31, 0x01	; 1
    1736:	20 40       	sbci	r18, 0x00	; 0
    1738:	80 40       	sbci	r24, 0x00	; 0
    173a:	e1 f7       	brne	.-8      	; 0x1734 <main+0x2f8>
    173c:	00 c0       	rjmp	.+0      	; 0x173e <main+0x302>
    173e:	00 00       	nop
					_delay_ms(60);
					MOT_brake();
    1740:	34 dc       	rcall	.-1944   	; 0xfaa <MOT_brake>
					
					MOT_turn_90_deg(DIR_RIGHT);
    1742:	82 e0       	ldi	r24, 0x02	; 2
    1744:	a9 dc       	rcall	.-1710   	; 0x1098 <MOT_turn_90_deg>
					
					MOT_turn_right(50);
    1746:	82 e3       	ldi	r24, 0x32	; 50
    1748:	7f dc       	rcall	.-1794   	; 0x1048 <MOT_turn_right>
    174a:	9f ef       	ldi	r25, 0xFF	; 255
    174c:	eb ed       	ldi	r30, 0xDB	; 219
    174e:	f5 e0       	ldi	r31, 0x05	; 5
    1750:	91 50       	subi	r25, 0x01	; 1
    1752:	e0 40       	sbci	r30, 0x00	; 0
    1754:	f0 40       	sbci	r31, 0x00	; 0
    1756:	e1 f7       	brne	.-8      	; 0x1750 <main+0x314>
    1758:	00 c0       	rjmp	.+0      	; 0x175a <main+0x31e>
    175a:	00 00       	nop
					_delay_ms(60);
					MOT_brake();
    175c:	26 dc       	rcall	.-1972   	; 0xfaa <MOT_brake>
					
					SENS_FLAG_s.LINE_RIGHT=0;
    175e:	80 91 5b 21 	lds	r24, 0x215B
    1762:	8f 7d       	andi	r24, 0xDF	; 223
    1764:	80 93 5b 21 	sts	0x215B, r24
					SENS_FLAG_s.LINE_LEFT=0;
    1768:	80 91 5b 21 	lds	r24, 0x215B
    176c:	8f 7e       	andi	r24, 0xEF	; 239
    176e:	80 93 5b 21 	sts	0x215B, r24
					IGNEORE_SENS_s.LINE = read_rtc_time();
    1772:	fd dc       	rcall	.-1542   	; 0x116e <read_rtc_time>
    1774:	f7 01       	movw	r30, r14
    1776:	60 83       	st	Z, r22
    1778:	71 83       	std	Z+1, r23	; 0x01
    177a:	82 83       	std	Z+2, r24	; 0x02
    177c:	93 83       	std	Z+3, r25	; 0x03
					BUZZ_beep(50);
    177e:	82 e3       	ldi	r24, 0x32	; 50
    1780:	90 e0       	ldi	r25, 0x00	; 0
    1782:	0a dd       	rcall	.-1516   	; 0x1198 <BUZZ_beep>
				}
				//------------------------------------------------------------------------------SHARPS::::---->>>>
				
				if (SENS_FLAG_s.SHARP_DIGIT==1)
    1784:	80 91 5b 21 	lds	r24, 0x215B
    1788:	80 ff       	sbrs	r24, 0
    178a:	06 c0       	rjmp	.+12     	; 0x1798 <main+0x35c>
				{
					//<<<---------check loop for a some time to ensure that enemy is below us
					ATTACK();
    178c:	b1 dd       	rcall	.-1182   	; 0x12f0 <ATTACK>
					// 								break;
					// 							}
					// 						}
					//
					// 					}
					SENS_FLAG_s.SHARP_DIGIT=0;
    178e:	80 91 5b 21 	lds	r24, 0x215B
    1792:	8e 7f       	andi	r24, 0xFE	; 254
    1794:	80 93 5b 21 	sts	0x215B, r24
				}
				
				
				if (SENS_FLAG_s.SHARP_A_FRONT==1)
    1798:	80 91 5b 21 	lds	r24, 0x215B
    179c:	81 ff       	sbrs	r24, 1
    179e:	9e c0       	rjmp	.+316    	; 0x18dc <main+0x4a0>
				{
					MOT_brake();
    17a0:	04 dc       	rcall	.-2040   	; 0xfaa <MOT_brake>
					IGNEORE_SENS_s.SHARP_A_FRONT = read_rtc_time();
    17a2:	e5 dc       	rcall	.-1590   	; 0x116e <read_rtc_time>
    17a4:	68 83       	st	Y, r22
    17a6:	79 83       	std	Y+1, r23	; 0x01
    17a8:	8a 83       	std	Y+2, r24	; 0x02
    17aa:	9b 83       	std	Y+3, r25	; 0x03
					while(read_rtc_time()-IGNEORE_SENS_s.SHARP_A_FRONT <50 && ANALOG_SHARP_FRONT_CHECK);
    17ac:	e0 dc       	rcall	.-1600   	; 0x116e <read_rtc_time>
    17ae:	08 81       	ld	r16, Y
    17b0:	19 81       	ldd	r17, Y+1	; 0x01
    17b2:	2a 81       	ldd	r18, Y+2	; 0x02
    17b4:	3b 81       	ldd	r19, Y+3	; 0x03
    17b6:	dc 01       	movw	r26, r24
    17b8:	cb 01       	movw	r24, r22
    17ba:	80 1b       	sub	r24, r16
    17bc:	91 0b       	sbc	r25, r17
    17be:	a2 0b       	sbc	r26, r18
    17c0:	b3 0b       	sbc	r27, r19
    17c2:	c2 97       	sbiw	r24, 0x32	; 50
    17c4:	a1 05       	cpc	r26, r1
    17c6:	b1 05       	cpc	r27, r1
    17c8:	20 f4       	brcc	.+8      	; 0x17d2 <main+0x396>
    17ca:	f2 01       	movw	r30, r4
    17cc:	80 85       	ldd	r24, Z+8	; 0x08
    17ce:	86 ff       	sbrs	r24, 6
    17d0:	ed cf       	rjmp	.-38     	; 0x17ac <main+0x370>
					//----------------------------------------------------------
					MOT_go_forward(40);
    17d2:	88 e2       	ldi	r24, 0x28	; 40
    17d4:	fd db       	rcall	.-2054   	; 0xfd0 <MOT_go_forward>
					
					IGNEORE_SENS_s.SHARP_A_FRONT  = read_rtc_time();
    17d6:	cb dc       	rcall	.-1642   	; 0x116e <read_rtc_time>
    17d8:	68 83       	st	Y, r22
    17da:	79 83       	std	Y+1, r23	; 0x01
    17dc:	8a 83       	std	Y+2, r24	; 0x02
    17de:	9b 83       	std	Y+3, r25	; 0x03
					while(read_rtc_time()-IGNEORE_SENS_s.SHARP_A_FRONT <650 && ANALOG_SHARP_FRONT_CHECK)
    17e0:	63 c0       	rjmp	.+198    	; 0x18a8 <main+0x46c>
					{
						if (SENS_FLAG_s.SHARP_DIGIT==1)
    17e2:	80 91 5b 21 	lds	r24, 0x215B
    17e6:	80 ff       	sbrs	r24, 0
    17e8:	4f c0       	rjmp	.+158    	; 0x1888 <main+0x44c>
						{
							MOT_go_forward(40);
    17ea:	88 e2       	ldi	r24, 0x28	; 40
    17ec:	f1 db       	rcall	.-2078   	; 0xfd0 <MOT_go_forward>
							IGNEORE_SENS_s.SHARP_DIGIT = read_rtc_time();
    17ee:	bf dc       	rcall	.-1666   	; 0x116e <read_rtc_time>
    17f0:	f6 01       	movw	r30, r12
    17f2:	60 83       	st	Z, r22
    17f4:	71 83       	std	Z+1, r23	; 0x01
    17f6:	82 83       	std	Z+2, r24	; 0x02
    17f8:	93 83       	std	Z+3, r25	; 0x03
							while (read_rtc_time()-IGNEORE_SENS_s.SHARP_DIGIT <350)
    17fa:	32 c0       	rjmp	.+100    	; 0x1860 <main+0x424>
							{
								if (DIGITAL_SHARP_CHECK_NEG)
    17fc:	f3 01       	movw	r30, r6
    17fe:	80 85       	ldd	r24, Z+8	; 0x08
    1800:	85 ff       	sbrs	r24, 5
    1802:	06 c0       	rjmp	.+12     	; 0x1810 <main+0x3d4>
								{
									SENS_FLAG_s.SHARP_DIGIT=0;
    1804:	80 91 5b 21 	lds	r24, 0x215B
    1808:	8e 7f       	andi	r24, 0xFE	; 254
    180a:	80 93 5b 21 	sts	0x215B, r24
									break;
    180e:	3a c0       	rjmp	.+116    	; 0x1884 <main+0x448>
								}
								if (SENS_FLAG_s.SHARP_A_LEFT==1)
    1810:	80 91 5b 21 	lds	r24, 0x215B
    1814:	82 ff       	sbrs	r24, 2
    1816:	06 c0       	rjmp	.+12     	; 0x1824 <main+0x3e8>
								{
									SENS_FLAG_s.SHARP_DIGIT=0;
    1818:	80 91 5b 21 	lds	r24, 0x215B
    181c:	8e 7f       	andi	r24, 0xFE	; 254
    181e:	80 93 5b 21 	sts	0x215B, r24
									break;
    1822:	30 c0       	rjmp	.+96     	; 0x1884 <main+0x448>
								} // we have sensed left sharp so we dont clear flag and go out that loop
								if (SENS_FLAG_s.SHARP_A_RIGHT==1)
    1824:	80 91 5b 21 	lds	r24, 0x215B
    1828:	83 ff       	sbrs	r24, 3
    182a:	06 c0       	rjmp	.+12     	; 0x1838 <main+0x3fc>
								{
									SENS_FLAG_s.SHARP_DIGIT=0;
    182c:	80 91 5b 21 	lds	r24, 0x215B
    1830:	8e 7f       	andi	r24, 0xFE	; 254
    1832:	80 93 5b 21 	sts	0x215B, r24
									break;
    1836:	26 c0       	rjmp	.+76     	; 0x1884 <main+0x448>
								}
								if (SENS_FLAG_s.LINE_LEFT==1)
    1838:	80 91 5b 21 	lds	r24, 0x215B
    183c:	84 ff       	sbrs	r24, 4
    183e:	06 c0       	rjmp	.+12     	; 0x184c <main+0x410>
								{
									SENS_FLAG_s.SHARP_DIGIT=0;
    1840:	80 91 5b 21 	lds	r24, 0x215B
    1844:	8e 7f       	andi	r24, 0xFE	; 254
    1846:	80 93 5b 21 	sts	0x215B, r24
									break;
    184a:	1c c0       	rjmp	.+56     	; 0x1884 <main+0x448>
								}// we have sensed that during comeup we are on the line so break and dont clear flag
								if (SENS_FLAG_s.LINE_RIGHT==1)
    184c:	80 91 5b 21 	lds	r24, 0x215B
    1850:	85 ff       	sbrs	r24, 5
    1852:	06 c0       	rjmp	.+12     	; 0x1860 <main+0x424>
								{
									SENS_FLAG_s.SHARP_DIGIT=0;
    1854:	80 91 5b 21 	lds	r24, 0x215B
    1858:	8e 7f       	andi	r24, 0xFE	; 254
    185a:	80 93 5b 21 	sts	0x215B, r24
									break;
    185e:	12 c0       	rjmp	.+36     	; 0x1884 <main+0x448>
					{
						if (SENS_FLAG_s.SHARP_DIGIT==1)
						{
							MOT_go_forward(40);
							IGNEORE_SENS_s.SHARP_DIGIT = read_rtc_time();
							while (read_rtc_time()-IGNEORE_SENS_s.SHARP_DIGIT <350)
    1860:	86 dc       	rcall	.-1780   	; 0x116e <read_rtc_time>
    1862:	f6 01       	movw	r30, r12
    1864:	00 81       	ld	r16, Z
    1866:	11 81       	ldd	r17, Z+1	; 0x01
    1868:	22 81       	ldd	r18, Z+2	; 0x02
    186a:	33 81       	ldd	r19, Z+3	; 0x03
    186c:	dc 01       	movw	r26, r24
    186e:	cb 01       	movw	r24, r22
    1870:	80 1b       	sub	r24, r16
    1872:	91 0b       	sbc	r25, r17
    1874:	a2 0b       	sbc	r26, r18
    1876:	b3 0b       	sbc	r27, r19
    1878:	8e 35       	cpi	r24, 0x5E	; 94
    187a:	91 40       	sbci	r25, 0x01	; 1
    187c:	a1 05       	cpc	r26, r1
    187e:	b1 05       	cpc	r27, r1
    1880:	08 f4       	brcc	.+2      	; 0x1884 <main+0x448>
    1882:	bc cf       	rjmp	.-136    	; 0x17fc <main+0x3c0>
								{
									SENS_FLAG_s.SHARP_DIGIT=0;
									break;
								}
							}
							MOT_brake();
    1884:	92 db       	rcall	.-2268   	; 0xfaa <MOT_brake>
							//<<<---------check loop for a some time to ensure that enemy is below us
							//if (ATTACK()==ATK_FAIL) break;
							break;
    1886:	24 c0       	rjmp	.+72     	; 0x18d0 <main+0x494>
						}
						else
						{
							if (SENS_FLAG_s.SHARP_A_LEFT==1)break; // we have sensed left sharp so we dont clear flag and go out that loop
    1888:	80 91 5b 21 	lds	r24, 0x215B
    188c:	82 fd       	sbrc	r24, 2
    188e:	20 c0       	rjmp	.+64     	; 0x18d0 <main+0x494>
							if (SENS_FLAG_s.SHARP_A_RIGHT==1)break;
    1890:	80 91 5b 21 	lds	r24, 0x215B
    1894:	83 fd       	sbrc	r24, 3
    1896:	1c c0       	rjmp	.+56     	; 0x18d0 <main+0x494>
							if (SENS_FLAG_s.LINE_LEFT==1)break;// we have sensed that during comeup we are on the line so break and dont clear flag
    1898:	80 91 5b 21 	lds	r24, 0x215B
    189c:	84 fd       	sbrc	r24, 4
    189e:	18 c0       	rjmp	.+48     	; 0x18d0 <main+0x494>
							if (SENS_FLAG_s.LINE_RIGHT==1)break;
    18a0:	80 91 5b 21 	lds	r24, 0x215B
    18a4:	85 fd       	sbrc	r24, 5
    18a6:	14 c0       	rjmp	.+40     	; 0x18d0 <main+0x494>
					while(read_rtc_time()-IGNEORE_SENS_s.SHARP_A_FRONT <50 && ANALOG_SHARP_FRONT_CHECK);
					//----------------------------------------------------------
					MOT_go_forward(40);
					
					IGNEORE_SENS_s.SHARP_A_FRONT  = read_rtc_time();
					while(read_rtc_time()-IGNEORE_SENS_s.SHARP_A_FRONT <650 && ANALOG_SHARP_FRONT_CHECK)
    18a8:	62 dc       	rcall	.-1852   	; 0x116e <read_rtc_time>
    18aa:	08 81       	ld	r16, Y
    18ac:	19 81       	ldd	r17, Y+1	; 0x01
    18ae:	2a 81       	ldd	r18, Y+2	; 0x02
    18b0:	3b 81       	ldd	r19, Y+3	; 0x03
    18b2:	dc 01       	movw	r26, r24
    18b4:	cb 01       	movw	r24, r22
    18b6:	80 1b       	sub	r24, r16
    18b8:	91 0b       	sbc	r25, r17
    18ba:	a2 0b       	sbc	r26, r18
    18bc:	b3 0b       	sbc	r27, r19
    18be:	8a 38       	cpi	r24, 0x8A	; 138
    18c0:	92 40       	sbci	r25, 0x02	; 2
    18c2:	a1 05       	cpc	r26, r1
    18c4:	b1 05       	cpc	r27, r1
    18c6:	20 f4       	brcc	.+8      	; 0x18d0 <main+0x494>
    18c8:	f2 01       	movw	r30, r4
    18ca:	80 85       	ldd	r24, Z+8	; 0x08
    18cc:	86 ff       	sbrs	r24, 6
    18ce:	89 cf       	rjmp	.-238    	; 0x17e2 <main+0x3a6>
							if (SENS_FLAG_s.SHARP_A_RIGHT==1)break;
							if (SENS_FLAG_s.LINE_LEFT==1)break;// we have sensed that during comeup we are on the line so break and dont clear flag
							if (SENS_FLAG_s.LINE_RIGHT==1)break;
						}
					}
					MOT_brake();
    18d0:	6c db       	rcall	.-2344   	; 0xfaa <MOT_brake>
					SENS_FLAG_s.SHARP_A_FRONT=0;
    18d2:	80 91 5b 21 	lds	r24, 0x215B
    18d6:	8d 7f       	andi	r24, 0xFD	; 253
    18d8:	80 93 5b 21 	sts	0x215B, r24
				}
				
				// to dac to wew petli od frontu bo nie mozemy skerecec podczas wolnej jazdy
				
				if (SENS_FLAG_s.SHARP_A_LEFT==1 && read_rtc_time()-IGNEORE_SENS_s.SHARP_A_LEFT>100) //&& SENS_FLAG_s.LINE_LEFT==0 && SENS_FLAG_s.LINE_RIGHT==0) // czy to nie musi byc przed frontowym?
    18dc:	80 91 5b 21 	lds	r24, 0x215B
    18e0:	82 ff       	sbrs	r24, 2
    18e2:	1e c0       	rjmp	.+60     	; 0x1920 <main+0x4e4>
    18e4:	44 dc       	rcall	.-1912   	; 0x116e <read_rtc_time>
    18e6:	f4 01       	movw	r30, r8
    18e8:	00 81       	ld	r16, Z
    18ea:	11 81       	ldd	r17, Z+1	; 0x01
    18ec:	22 81       	ldd	r18, Z+2	; 0x02
    18ee:	33 81       	ldd	r19, Z+3	; 0x03
    18f0:	dc 01       	movw	r26, r24
    18f2:	cb 01       	movw	r24, r22
    18f4:	80 1b       	sub	r24, r16
    18f6:	91 0b       	sbc	r25, r17
    18f8:	a2 0b       	sbc	r26, r18
    18fa:	b3 0b       	sbc	r27, r19
    18fc:	85 36       	cpi	r24, 0x65	; 101
    18fe:	91 05       	cpc	r25, r1
    1900:	a1 05       	cpc	r26, r1
    1902:	b1 05       	cpc	r27, r1
    1904:	68 f0       	brcs	.+26     	; 0x1920 <main+0x4e4>
				{
					MOT_turn_45_deg(DIR_LEFT);
    1906:	81 e0       	ldi	r24, 0x01	; 1
    1908:	b3 db       	rcall	.-2202   	; 0x1070 <MOT_turn_45_deg>
					SENS_FLAG_s.SHARP_A_LEFT=0;
    190a:	80 91 5b 21 	lds	r24, 0x215B
    190e:	8b 7f       	andi	r24, 0xFB	; 251
    1910:	80 93 5b 21 	sts	0x215B, r24
					IGNEORE_SENS_s.SHARP_A_LEFT = read_rtc_time();
    1914:	2c dc       	rcall	.-1960   	; 0x116e <read_rtc_time>
    1916:	f4 01       	movw	r30, r8
    1918:	60 83       	st	Z, r22
    191a:	71 83       	std	Z+1, r23	; 0x01
    191c:	82 83       	std	Z+2, r24	; 0x02
    191e:	93 83       	std	Z+3, r25	; 0x03
				}
				
				if (SENS_FLAG_s.SHARP_A_RIGHT==1 && read_rtc_time()-IGNEORE_SENS_s.SHARP_A_RIGHT>100)// && SENS_FLAG_s.LINE_LEFT==0 && SENS_FLAG_s.LINE_RIGHT==0)
    1920:	80 91 5b 21 	lds	r24, 0x215B
    1924:	83 ff       	sbrs	r24, 3
    1926:	ce cd       	rjmp	.-1124   	; 0x14c4 <main+0x88>
    1928:	22 dc       	rcall	.-1980   	; 0x116e <read_rtc_time>
    192a:	f5 01       	movw	r30, r10
    192c:	00 81       	ld	r16, Z
    192e:	11 81       	ldd	r17, Z+1	; 0x01
    1930:	22 81       	ldd	r18, Z+2	; 0x02
    1932:	33 81       	ldd	r19, Z+3	; 0x03
    1934:	dc 01       	movw	r26, r24
    1936:	cb 01       	movw	r24, r22
    1938:	80 1b       	sub	r24, r16
    193a:	91 0b       	sbc	r25, r17
    193c:	a2 0b       	sbc	r26, r18
    193e:	b3 0b       	sbc	r27, r19
    1940:	85 36       	cpi	r24, 0x65	; 101
    1942:	91 05       	cpc	r25, r1
    1944:	a1 05       	cpc	r26, r1
    1946:	b1 05       	cpc	r27, r1
    1948:	08 f4       	brcc	.+2      	; 0x194c <main+0x510>
    194a:	bc cd       	rjmp	.-1160   	; 0x14c4 <main+0x88>
				{
					MOT_turn_45_deg(DIR_RIGHT);
    194c:	82 e0       	ldi	r24, 0x02	; 2
    194e:	90 db       	rcall	.-2272   	; 0x1070 <MOT_turn_45_deg>
					SENS_FLAG_s.SHARP_A_RIGHT=0;
    1950:	80 91 5b 21 	lds	r24, 0x215B
    1954:	87 7f       	andi	r24, 0xF7	; 247
    1956:	80 93 5b 21 	sts	0x215B, r24
					IGNEORE_SENS_s.SHARP_A_RIGHT = read_rtc_time();
    195a:	09 dc       	rcall	.-2030   	; 0x116e <read_rtc_time>
    195c:	f5 01       	movw	r30, r10
    195e:	60 83       	st	Z, r22
    1960:	71 83       	std	Z+1, r23	; 0x01
    1962:	82 83       	std	Z+2, r24	; 0x02
    1964:	93 83       	std	Z+3, r25	; 0x03
    1966:	ae cd       	rjmp	.-1188   	; 0x14c4 <main+0x88>
				break;
			}
		}
		else
		{
			FLAGS_clear_all();
    1968:	0d dd       	rcall	.-1510   	; 0x1384 <FLAGS_clear_all>
			GP_FLAGS_s.FIRST_TURN=1;
    196a:	80 91 42 21 	lds	r24, 0x2142
    196e:	80 61       	ori	r24, 0x10	; 16
    1970:	80 93 42 21 	sts	0x2142, r24
			MOT_brake();
    1974:	1a db       	rcall	.-2508   	; 0xfaa <MOT_brake>
			MOT_stop();
    1976:	06 db       	rcall	.-2548   	; 0xf84 <MOT_stop>
    1978:	a5 cd       	rjmp	.-1206   	; 0x14c4 <main+0x88>

0000197a <__vector_64>:
		//uint32_t range = ReadADC(MEAS_SHARP_FRONT);
		//send_uint32t(range,1);
	}
}

ISR(PORTD_INT0_vect) {// line sensor r
    197a:	1f 92       	push	r1
    197c:	0f 92       	push	r0
    197e:	0f b6       	in	r0, 0x3f	; 63
    1980:	0f 92       	push	r0
    1982:	11 24       	eor	r1, r1
    1984:	8f 93       	push	r24
	SENS_FLAG_s.LINE_RIGHT=1;
    1986:	80 91 5b 21 	lds	r24, 0x215B
    198a:	80 62       	ori	r24, 0x20	; 32
    198c:	80 93 5b 21 	sts	0x215B, r24
}
    1990:	8f 91       	pop	r24
    1992:	0f 90       	pop	r0
    1994:	0f be       	out	0x3f, r0	; 63
    1996:	0f 90       	pop	r0
    1998:	1f 90       	pop	r1
    199a:	18 95       	reti

0000199c <__vector_65>:
ISR(PORTD_INT1_vect) {// line sensor l
    199c:	1f 92       	push	r1
    199e:	0f 92       	push	r0
    19a0:	0f b6       	in	r0, 0x3f	; 63
    19a2:	0f 92       	push	r0
    19a4:	11 24       	eor	r1, r1
    19a6:	8f 93       	push	r24
	SENS_FLAG_s.LINE_LEFT=1;
    19a8:	80 91 5b 21 	lds	r24, 0x215B
    19ac:	80 61       	ori	r24, 0x10	; 16
    19ae:	80 93 5b 21 	sts	0x215B, r24
	//cli();
	//sei();
}
    19b2:	8f 91       	pop	r24
    19b4:	0f 90       	pop	r0
    19b6:	0f be       	out	0x3f, r0	; 63
    19b8:	0f 90       	pop	r0
    19ba:	1f 90       	pop	r1
    19bc:	18 95       	reti

000019be <__vector_43>:
ISR(PORTE_INT0_vect) {// line sensor
    19be:	1f 92       	push	r1
    19c0:	0f 92       	push	r0
    19c2:	0f b6       	in	r0, 0x3f	; 63
    19c4:	0f 92       	push	r0
    19c6:	11 24       	eor	r1, r1
}
    19c8:	0f 90       	pop	r0
    19ca:	0f be       	out	0x3f, r0	; 63
    19cc:	0f 90       	pop	r0
    19ce:	1f 90       	pop	r1
    19d0:	18 95       	reti

000019d2 <__vector_44>:
ISR(PORTE_INT1_vect) {// line sensor
    19d2:	1f 92       	push	r1
    19d4:	0f 92       	push	r0
    19d6:	0f b6       	in	r0, 0x3f	; 63
    19d8:	0f 92       	push	r0
    19da:	11 24       	eor	r1, r1
}
    19dc:	0f 90       	pop	r0
    19de:	0f be       	out	0x3f, r0	; 63
    19e0:	0f 90       	pop	r0
    19e2:	1f 90       	pop	r1
    19e4:	18 95       	reti

000019e6 <__vector_2>:
ISR(PORTC_INT0_vect) {// sharp analog front
    19e6:	1f 92       	push	r1
    19e8:	0f 92       	push	r0
    19ea:	0f b6       	in	r0, 0x3f	; 63
    19ec:	0f 92       	push	r0
    19ee:	11 24       	eor	r1, r1
    19f0:	8f 93       	push	r24
	//BUZZ_beep(10);
	SENS_FLAG_s.SHARP_A_FRONT=1;
    19f2:	80 91 5b 21 	lds	r24, 0x215B
    19f6:	82 60       	ori	r24, 0x02	; 2
    19f8:	80 93 5b 21 	sts	0x215B, r24
}
    19fc:	8f 91       	pop	r24
    19fe:	0f 90       	pop	r0
    1a00:	0f be       	out	0x3f, r0	; 63
    1a02:	0f 90       	pop	r0
    1a04:	1f 90       	pop	r1
    1a06:	18 95       	reti

00001a08 <__vector_3>:
ISR(PORTC_INT1_vect) {// sharp analog left
    1a08:	1f 92       	push	r1
    1a0a:	0f 92       	push	r0
    1a0c:	0f b6       	in	r0, 0x3f	; 63
    1a0e:	0f 92       	push	r0
    1a10:	11 24       	eor	r1, r1
    1a12:	8f 93       	push	r24
	SENS_FLAG_s.SHARP_A_LEFT=1;
    1a14:	80 91 5b 21 	lds	r24, 0x215B
    1a18:	84 60       	ori	r24, 0x04	; 4
    1a1a:	80 93 5b 21 	sts	0x215B, r24
}
    1a1e:	8f 91       	pop	r24
    1a20:	0f 90       	pop	r0
    1a22:	0f be       	out	0x3f, r0	; 63
    1a24:	0f 90       	pop	r0
    1a26:	1f 90       	pop	r1
    1a28:	18 95       	reti

00001a2a <__vector_66>:
ISR(PORTA_INT0_vect) {// sharp analg right
    1a2a:	1f 92       	push	r1
    1a2c:	0f 92       	push	r0
    1a2e:	0f b6       	in	r0, 0x3f	; 63
    1a30:	0f 92       	push	r0
    1a32:	11 24       	eor	r1, r1
    1a34:	8f 93       	push	r24
	SENS_FLAG_s.SHARP_A_RIGHT=1;
    1a36:	80 91 5b 21 	lds	r24, 0x215B
    1a3a:	88 60       	ori	r24, 0x08	; 8
    1a3c:	80 93 5b 21 	sts	0x215B, r24
}
    1a40:	8f 91       	pop	r24
    1a42:	0f 90       	pop	r0
    1a44:	0f be       	out	0x3f, r0	; 63
    1a46:	0f 90       	pop	r0
    1a48:	1f 90       	pop	r1
    1a4a:	18 95       	reti

00001a4c <__vector_67>:
ISR(PORTA_INT1_vect) {// // sharp digital
    1a4c:	1f 92       	push	r1
    1a4e:	0f 92       	push	r0
    1a50:	0f b6       	in	r0, 0x3f	; 63
    1a52:	0f 92       	push	r0
    1a54:	11 24       	eor	r1, r1
    1a56:	8f 93       	push	r24
	SENS_FLAG_s.SHARP_DIGIT=1;
    1a58:	80 91 5b 21 	lds	r24, 0x215B
    1a5c:	81 60       	ori	r24, 0x01	; 1
    1a5e:	80 93 5b 21 	sts	0x215B, r24
}
    1a62:	8f 91       	pop	r24
    1a64:	0f 90       	pop	r0
    1a66:	0f be       	out	0x3f, r0	; 63
    1a68:	0f 90       	pop	r0
    1a6a:	1f 90       	pop	r1
    1a6c:	18 95       	reti

00001a6e <__vector_47>:
ISR(TCE0_OVF_vect) {		//button sense interupt 4ms
    1a6e:	1f 92       	push	r1
    1a70:	0f 92       	push	r0
    1a72:	0f b6       	in	r0, 0x3f	; 63
    1a74:	0f 92       	push	r0
    1a76:	11 24       	eor	r1, r1
    1a78:	0b b6       	in	r0, 0x3b	; 59
    1a7a:	0f 92       	push	r0
    1a7c:	2f 93       	push	r18
    1a7e:	3f 93       	push	r19
    1a80:	4f 93       	push	r20
    1a82:	5f 93       	push	r21
    1a84:	6f 93       	push	r22
    1a86:	7f 93       	push	r23
    1a88:	8f 93       	push	r24
    1a8a:	9f 93       	push	r25
    1a8c:	af 93       	push	r26
    1a8e:	bf 93       	push	r27
    1a90:	ef 93       	push	r30
    1a92:	ff 93       	push	r31
	if (BUTTON_status(BUTTON_1_CHECK,BUTTON_1)==BUTTON_RISING_EDGE) BTN_s._1=1;
    1a94:	e0 e2       	ldi	r30, 0x20	; 32
    1a96:	f6 e0       	ldi	r31, 0x06	; 6
    1a98:	80 85       	ldd	r24, Z+8	; 0x08
    1a9a:	80 95       	com	r24
    1a9c:	60 e0       	ldi	r22, 0x00	; 0
    1a9e:	81 70       	andi	r24, 0x01	; 1
    1aa0:	03 dc       	rcall	.-2042   	; 0x12a8 <BUTTON_status>
    1aa2:	81 11       	cpse	r24, r1
    1aa4:	05 c0       	rjmp	.+10     	; 0x1ab0 <__vector_47+0x42>
    1aa6:	80 91 5c 21 	lds	r24, 0x215C
    1aaa:	81 60       	ori	r24, 0x01	; 1
    1aac:	80 93 5c 21 	sts	0x215C, r24
	if (BUTTON_status(BUTTON_2_CHECK,BUTTON_2)==BUTTON_RISING_EDGE) BTN_s._2=1;
    1ab0:	e0 e2       	ldi	r30, 0x20	; 32
    1ab2:	f6 e0       	ldi	r31, 0x06	; 6
    1ab4:	80 85       	ldd	r24, Z+8	; 0x08
    1ab6:	86 95       	lsr	r24
    1ab8:	81 70       	andi	r24, 0x01	; 1
    1aba:	61 e0       	ldi	r22, 0x01	; 1
    1abc:	91 e0       	ldi	r25, 0x01	; 1
    1abe:	89 27       	eor	r24, r25
    1ac0:	f3 db       	rcall	.-2074   	; 0x12a8 <BUTTON_status>
    1ac2:	81 11       	cpse	r24, r1
    1ac4:	05 c0       	rjmp	.+10     	; 0x1ad0 <__vector_47+0x62>
    1ac6:	80 91 5c 21 	lds	r24, 0x215C
    1aca:	82 60       	ori	r24, 0x02	; 2
    1acc:	80 93 5c 21 	sts	0x215C, r24
	if (BUTTON_status(BUTTON_3_CHECK,BUTTON_3)==BUTTON_RISING_EDGE) BTN_s._3=1;
    1ad0:	e0 e2       	ldi	r30, 0x20	; 32
    1ad2:	f6 e0       	ldi	r31, 0x06	; 6
    1ad4:	80 85       	ldd	r24, Z+8	; 0x08
    1ad6:	82 fb       	bst	r24, 2
    1ad8:	88 27       	eor	r24, r24
    1ada:	80 f9       	bld	r24, 0
    1adc:	62 e0       	ldi	r22, 0x02	; 2
    1ade:	91 e0       	ldi	r25, 0x01	; 1
    1ae0:	89 27       	eor	r24, r25
    1ae2:	e2 db       	rcall	.-2108   	; 0x12a8 <BUTTON_status>
    1ae4:	81 11       	cpse	r24, r1
    1ae6:	05 c0       	rjmp	.+10     	; 0x1af2 <__vector_47+0x84>
    1ae8:	80 91 5c 21 	lds	r24, 0x215C
    1aec:	84 60       	ori	r24, 0x04	; 4
    1aee:	80 93 5c 21 	sts	0x215C, r24
	if (BUTTON_status(BUTTON_4_CHECK,BUTTON_4)==BUTTON_RISING_EDGE) BTN_s._4=1;
    1af2:	e0 e2       	ldi	r30, 0x20	; 32
    1af4:	f6 e0       	ldi	r31, 0x06	; 6
    1af6:	80 85       	ldd	r24, Z+8	; 0x08
    1af8:	83 fb       	bst	r24, 3
    1afa:	88 27       	eor	r24, r24
    1afc:	80 f9       	bld	r24, 0
    1afe:	63 e0       	ldi	r22, 0x03	; 3
    1b00:	91 e0       	ldi	r25, 0x01	; 1
    1b02:	89 27       	eor	r24, r25
    1b04:	d1 db       	rcall	.-2142   	; 0x12a8 <BUTTON_status>
    1b06:	81 11       	cpse	r24, r1
    1b08:	05 c0       	rjmp	.+10     	; 0x1b14 <__vector_47+0xa6>
    1b0a:	80 91 5c 21 	lds	r24, 0x215C
    1b0e:	88 60       	ori	r24, 0x08	; 8
    1b10:	80 93 5c 21 	sts	0x215C, r24
	
	if (BUZZER_DELAY_TICK == 0) BUZZ_OFF;
    1b14:	80 91 5f 21 	lds	r24, 0x215F
    1b18:	90 91 60 21 	lds	r25, 0x2160
    1b1c:	89 2b       	or	r24, r25
    1b1e:	29 f4       	brne	.+10     	; 0x1b2a <__vector_47+0xbc>
    1b20:	e0 e0       	ldi	r30, 0x00	; 0
    1b22:	fb e0       	ldi	r31, 0x0B	; 11
    1b24:	81 81       	ldd	r24, Z+1	; 0x01
    1b26:	8f 7e       	andi	r24, 0xEF	; 239
    1b28:	81 83       	std	Z+1, r24	; 0x01
	if (BUZZER_DELAY_TICK > 0)BUZZER_DELAY_TICK--;
    1b2a:	80 91 5f 21 	lds	r24, 0x215F
    1b2e:	90 91 60 21 	lds	r25, 0x2160
    1b32:	89 2b       	or	r24, r25
    1b34:	49 f0       	breq	.+18     	; 0x1b48 <__vector_47+0xda>
    1b36:	80 91 5f 21 	lds	r24, 0x215F
    1b3a:	90 91 60 21 	lds	r25, 0x2160
    1b3e:	01 97       	sbiw	r24, 0x01	; 1
    1b40:	80 93 5f 21 	sts	0x215F, r24
    1b44:	90 93 60 21 	sts	0x2160, r25
}
    1b48:	ff 91       	pop	r31
    1b4a:	ef 91       	pop	r30
    1b4c:	bf 91       	pop	r27
    1b4e:	af 91       	pop	r26
    1b50:	9f 91       	pop	r25
    1b52:	8f 91       	pop	r24
    1b54:	7f 91       	pop	r23
    1b56:	6f 91       	pop	r22
    1b58:	5f 91       	pop	r21
    1b5a:	4f 91       	pop	r20
    1b5c:	3f 91       	pop	r19
    1b5e:	2f 91       	pop	r18
    1b60:	0f 90       	pop	r0
    1b62:	0b be       	out	0x3b, r0	; 59
    1b64:	0f 90       	pop	r0
    1b66:	0f be       	out	0x3f, r0	; 63
    1b68:	0f 90       	pop	r0
    1b6a:	1f 90       	pop	r1
    1b6c:	18 95       	reti

00001b6e <__vector_10>:
ISR(RTC_OVF_vect){
    1b6e:	1f 92       	push	r1
    1b70:	0f 92       	push	r0
    1b72:	0f b6       	in	r0, 0x3f	; 63
    1b74:	0f 92       	push	r0
    1b76:	11 24       	eor	r1, r1
    1b78:	8f 93       	push	r24
    1b7a:	9f 93       	push	r25
    1b7c:	af 93       	push	r26
    1b7e:	bf 93       	push	r27
	RTC_OVF_COUNTER++;
    1b80:	80 91 43 21 	lds	r24, 0x2143
    1b84:	90 91 44 21 	lds	r25, 0x2144
    1b88:	a0 91 45 21 	lds	r26, 0x2145
    1b8c:	b0 91 46 21 	lds	r27, 0x2146
    1b90:	01 96       	adiw	r24, 0x01	; 1
    1b92:	a1 1d       	adc	r26, r1
    1b94:	b1 1d       	adc	r27, r1
    1b96:	80 93 43 21 	sts	0x2143, r24
    1b9a:	90 93 44 21 	sts	0x2144, r25
    1b9e:	a0 93 45 21 	sts	0x2145, r26
    1ba2:	b0 93 46 21 	sts	0x2146, r27
}
    1ba6:	bf 91       	pop	r27
    1ba8:	af 91       	pop	r26
    1baa:	9f 91       	pop	r25
    1bac:	8f 91       	pop	r24
    1bae:	0f 90       	pop	r0
    1bb0:	0f be       	out	0x3f, r0	; 63
    1bb2:	0f 90       	pop	r0
    1bb4:	1f 90       	pop	r1
    1bb6:	18 95       	reti

00001bb8 <__vector_25>:
ISR(USARTC0_RXC_vect)
{
    1bb8:	1f 92       	push	r1
    1bba:	0f 92       	push	r0
    1bbc:	0f b6       	in	r0, 0x3f	; 63
    1bbe:	0f 92       	push	r0
    1bc0:	11 24       	eor	r1, r1
    1bc2:	0b b6       	in	r0, 0x3b	; 59
    1bc4:	0f 92       	push	r0
    1bc6:	2f 93       	push	r18
    1bc8:	3f 93       	push	r19
    1bca:	4f 93       	push	r20
    1bcc:	5f 93       	push	r21
    1bce:	6f 93       	push	r22
    1bd0:	7f 93       	push	r23
    1bd2:	8f 93       	push	r24
    1bd4:	9f 93       	push	r25
    1bd6:	af 93       	push	r26
    1bd8:	bf 93       	push	r27
    1bda:	ef 93       	push	r30
    1bdc:	ff 93       	push	r31
	//	LED_toggle();
	USART_RX_DATA = USARTC0.DATA;
    1bde:	80 91 a0 08 	lds	r24, 0x08A0
    1be2:	80 93 5d 21 	sts	0x215D, r24
	
	switch (USART_RX_DATA)
    1be6:	80 91 5d 21 	lds	r24, 0x215D
    1bea:	90 e0       	ldi	r25, 0x00	; 0
    1bec:	fc 01       	movw	r30, r24
    1bee:	e3 54       	subi	r30, 0x43	; 67
    1bf0:	f1 09       	sbc	r31, r1
    1bf2:	e1 32       	cpi	r30, 0x21	; 33
    1bf4:	f1 05       	cpc	r31, r1
    1bf6:	58 f5       	brcc	.+86     	; 0x1c4e <__vector_25+0x96>
    1bf8:	e2 50       	subi	r30, 0x02	; 2
    1bfa:	ff 4f       	sbci	r31, 0xFF	; 255
    1bfc:	5d c0       	rjmp	.+186    	; 0x1cb8 <__tablejump2__>
	{
		case 'R':
		MOT_turn_right(50);
    1bfe:	82 e3       	ldi	r24, 0x32	; 50
    1c00:	23 da       	rcall	.-3002   	; 0x1048 <MOT_turn_right>
		break;
    1c02:	25 c0       	rjmp	.+74     	; 0x1c4e <__vector_25+0x96>
		
		case 'L':
		MOT_turn_left(50);
    1c04:	82 e3       	ldi	r24, 0x32	; 50
    1c06:	0c da       	rcall	.-3048   	; 0x1020 <MOT_turn_left>
		break;
    1c08:	22 c0       	rjmp	.+68     	; 0x1c4e <__vector_25+0x96>
		
		case 'U':
		MOT_go_forward(100);
    1c0a:	84 e6       	ldi	r24, 0x64	; 100
    1c0c:	e1 d9       	rcall	.-3134   	; 0xfd0 <MOT_go_forward>
		break;
    1c0e:	1f c0       	rjmp	.+62     	; 0x1c4e <__vector_25+0x96>
		
		case 'D':
		MOT_go_backward(50);
    1c10:	82 e3       	ldi	r24, 0x32	; 50
    1c12:	f2 d9       	rcall	.-3100   	; 0xff8 <MOT_go_backward>
		break;
    1c14:	1c c0       	rjmp	.+56     	; 0x1c4e <__vector_25+0x96>
		
		case 'C':
		MOT_stop();
    1c16:	b6 d9       	rcall	.-3220   	; 0xf84 <MOT_stop>
		break;
    1c18:	1a c0       	rjmp	.+52     	; 0x1c4e <__vector_25+0x96>
		
		
		case 'a':
		BUZZ_beep(50);
    1c1a:	82 e3       	ldi	r24, 0x32	; 50
    1c1c:	90 e0       	ldi	r25, 0x00	; 0
    1c1e:	bc da       	rcall	.-2696   	; 0x1198 <BUZZ_beep>
		GP_FLAGS_s.START_STOP ^= 1 << 0;
    1c20:	90 91 42 21 	lds	r25, 0x2142
    1c24:	90 95       	com	r25
    1c26:	80 91 42 21 	lds	r24, 0x2142
    1c2a:	90 fb       	bst	r25, 0
    1c2c:	80 f9       	bld	r24, 0
    1c2e:	80 93 42 21 	sts	0x2142, r24
		break;
    1c32:	0d c0       	rjmp	.+26     	; 0x1c4e <__vector_25+0x96>
		
		case 'b':
		GP_FLAGS_s.MODE=MODE_STANDARD;
    1c34:	80 91 42 21 	lds	r24, 0x2142
    1c38:	81 7f       	andi	r24, 0xF1	; 241
    1c3a:	84 60       	ori	r24, 0x04	; 4
    1c3c:	80 93 42 21 	sts	0x2142, r24
		break;
    1c40:	06 c0       	rjmp	.+12     	; 0x1c4e <__vector_25+0x96>
		
		case 'c':
		GP_FLAGS_s.MODE=MODE_TORNADO;
    1c42:	80 91 42 21 	lds	r24, 0x2142
    1c46:	81 7f       	andi	r24, 0xF1	; 241
    1c48:	82 60       	ori	r24, 0x02	; 2
    1c4a:	80 93 42 21 	sts	0x2142, r24
		break;
		
	}
	
}
    1c4e:	ff 91       	pop	r31
    1c50:	ef 91       	pop	r30
    1c52:	bf 91       	pop	r27
    1c54:	af 91       	pop	r26
    1c56:	9f 91       	pop	r25
    1c58:	8f 91       	pop	r24
    1c5a:	7f 91       	pop	r23
    1c5c:	6f 91       	pop	r22
    1c5e:	5f 91       	pop	r21
    1c60:	4f 91       	pop	r20
    1c62:	3f 91       	pop	r19
    1c64:	2f 91       	pop	r18
    1c66:	0f 90       	pop	r0
    1c68:	0b be       	out	0x3b, r0	; 59
    1c6a:	0f 90       	pop	r0
    1c6c:	0f be       	out	0x3f, r0	; 63
    1c6e:	0f 90       	pop	r0
    1c70:	1f 90       	pop	r1
    1c72:	18 95       	reti

00001c74 <init_USART_C0>:
	sendChar(var,&USARTC0);
	return 0;
}
void init_USART_C0(void) //DEBUG
{
	USARTC0.BAUDCTRLB = 0; //BSCALE is 0
    1c74:	e0 ea       	ldi	r30, 0xA0	; 160
    1c76:	f8 e0       	ldi	r31, 0x08	; 8
    1c78:	17 82       	std	Z+7, r1	; 0x07
	USARTC0.BAUDCTRLA = BAUD_9600; //bsel
    1c7a:	8f ec       	ldi	r24, 0xCF	; 207
    1c7c:	86 83       	std	Z+6, r24	; 0x06
	USARTC0.CTRLA = USART_RXCINTLVL_HI_gc; //Disable interrupts
    1c7e:	80 e3       	ldi	r24, 0x30	; 48
    1c80:	83 83       	std	Z+3, r24	; 0x03
	USARTC0.CTRLC = USART_CHSIZE_8BIT_gc;//8 data bits, no parity and 1 stop bit
    1c82:	83 e0       	ldi	r24, 0x03	; 3
    1c84:	85 83       	std	Z+5, r24	; 0x05
	USARTC0.CTRLB = USART_TXEN_bm | USART_RXEN_bm; //Enable receive and transmit
    1c86:	88 e1       	ldi	r24, 0x18	; 24
    1c88:	84 83       	std	Z+4, r24	; 0x04
	PORTC.DIRSET = PIN3_bm;
    1c8a:	88 e0       	ldi	r24, 0x08	; 8
    1c8c:	e0 e4       	ldi	r30, 0x40	; 64
    1c8e:	f6 e0       	ldi	r31, 0x06	; 6
    1c90:	81 83       	std	Z+1, r24	; 0x01
	// setup our stdio stream
	stdout = &mystdout;
    1c92:	80 e0       	ldi	r24, 0x00	; 0
    1c94:	90 e2       	ldi	r25, 0x20	; 32
    1c96:	80 93 67 21 	sts	0x2167, r24
    1c9a:	90 93 68 21 	sts	0x2168, r25
    1c9e:	08 95       	ret

00001ca0 <sendChar>:
}
void sendChar(char c, USART_t *_register)
{
    1ca0:	fb 01       	movw	r30, r22
	while( !(_register->STATUS & USART_DREIF_bm) ); //Wait until DATA buffer is empty
    1ca2:	91 81       	ldd	r25, Z+1	; 0x01
    1ca4:	95 ff       	sbrs	r25, 5
    1ca6:	fd cf       	rjmp	.-6      	; 0x1ca2 <sendChar+0x2>
	_register->DATA = c;
    1ca8:	80 83       	st	Z, r24
    1caa:	08 95       	ret

00001cac <usart_putchar_printf>:
int usart_putchar_printf(char var, FILE *stream);
static FILE mystdout = FDEV_SETUP_STREAM(usart_putchar_printf, NULL, _FDEV_SETUP_WRITE);

// this function is called by printf as a stream handler
int usart_putchar_printf(char var, FILE *stream) {
	sendChar(var,&USARTC0);
    1cac:	60 ea       	ldi	r22, 0xA0	; 160
    1cae:	78 e0       	ldi	r23, 0x08	; 8
    1cb0:	f7 df       	rcall	.-18     	; 0x1ca0 <sendChar>
	return 0;
}
    1cb2:	80 e0       	ldi	r24, 0x00	; 0
    1cb4:	90 e0       	ldi	r25, 0x00	; 0
    1cb6:	08 95       	ret

00001cb8 <__tablejump2__>:
    1cb8:	ee 0f       	add	r30, r30
    1cba:	ff 1f       	adc	r31, r31

00001cbc <__tablejump__>:
    1cbc:	05 90       	lpm	r0, Z+
    1cbe:	f4 91       	lpm	r31, Z
    1cc0:	e0 2d       	mov	r30, r0
    1cc2:	19 94       	eijmp

00001cc4 <__muluhisi3>:
    1cc4:	09 d0       	rcall	.+18     	; 0x1cd8 <__umulhisi3>
    1cc6:	a5 9f       	mul	r26, r21
    1cc8:	90 0d       	add	r25, r0
    1cca:	b4 9f       	mul	r27, r20
    1ccc:	90 0d       	add	r25, r0
    1cce:	a4 9f       	mul	r26, r20
    1cd0:	80 0d       	add	r24, r0
    1cd2:	91 1d       	adc	r25, r1
    1cd4:	11 24       	eor	r1, r1
    1cd6:	08 95       	ret

00001cd8 <__umulhisi3>:
    1cd8:	a2 9f       	mul	r26, r18
    1cda:	b0 01       	movw	r22, r0
    1cdc:	b3 9f       	mul	r27, r19
    1cde:	c0 01       	movw	r24, r0
    1ce0:	a3 9f       	mul	r26, r19
    1ce2:	70 0d       	add	r23, r0
    1ce4:	81 1d       	adc	r24, r1
    1ce6:	11 24       	eor	r1, r1
    1ce8:	91 1d       	adc	r25, r1
    1cea:	b2 9f       	mul	r27, r18
    1cec:	70 0d       	add	r23, r0
    1cee:	81 1d       	adc	r24, r1
    1cf0:	11 24       	eor	r1, r1
    1cf2:	91 1d       	adc	r25, r1
    1cf4:	08 95       	ret

00001cf6 <sprintf>:
    1cf6:	0f 93       	push	r16
    1cf8:	1f 93       	push	r17
    1cfa:	cf 93       	push	r28
    1cfc:	df 93       	push	r29
    1cfe:	cd b7       	in	r28, 0x3d	; 61
    1d00:	de b7       	in	r29, 0x3e	; 62
    1d02:	2e 97       	sbiw	r28, 0x0e	; 14
    1d04:	cd bf       	out	0x3d, r28	; 61
    1d06:	de bf       	out	0x3e, r29	; 62
    1d08:	0e 89       	ldd	r16, Y+22	; 0x16
    1d0a:	1f 89       	ldd	r17, Y+23	; 0x17
    1d0c:	86 e0       	ldi	r24, 0x06	; 6
    1d0e:	8c 83       	std	Y+4, r24	; 0x04
    1d10:	09 83       	std	Y+1, r16	; 0x01
    1d12:	1a 83       	std	Y+2, r17	; 0x02
    1d14:	8f ef       	ldi	r24, 0xFF	; 255
    1d16:	9f e7       	ldi	r25, 0x7F	; 127
    1d18:	8d 83       	std	Y+5, r24	; 0x05
    1d1a:	9e 83       	std	Y+6, r25	; 0x06
    1d1c:	ae 01       	movw	r20, r28
    1d1e:	46 5e       	subi	r20, 0xE6	; 230
    1d20:	5f 4f       	sbci	r21, 0xFF	; 255
    1d22:	68 8d       	ldd	r22, Y+24	; 0x18
    1d24:	79 8d       	ldd	r23, Y+25	; 0x19
    1d26:	ce 01       	movw	r24, r28
    1d28:	01 96       	adiw	r24, 0x01	; 1
    1d2a:	0d d0       	rcall	.+26     	; 0x1d46 <vfprintf>
    1d2c:	ef 81       	ldd	r30, Y+7	; 0x07
    1d2e:	f8 85       	ldd	r31, Y+8	; 0x08
    1d30:	e0 0f       	add	r30, r16
    1d32:	f1 1f       	adc	r31, r17
    1d34:	10 82       	st	Z, r1
    1d36:	2e 96       	adiw	r28, 0x0e	; 14
    1d38:	cd bf       	out	0x3d, r28	; 61
    1d3a:	de bf       	out	0x3e, r29	; 62
    1d3c:	df 91       	pop	r29
    1d3e:	cf 91       	pop	r28
    1d40:	1f 91       	pop	r17
    1d42:	0f 91       	pop	r16
    1d44:	08 95       	ret

00001d46 <vfprintf>:
    1d46:	2f 92       	push	r2
    1d48:	3f 92       	push	r3
    1d4a:	4f 92       	push	r4
    1d4c:	5f 92       	push	r5
    1d4e:	6f 92       	push	r6
    1d50:	7f 92       	push	r7
    1d52:	8f 92       	push	r8
    1d54:	9f 92       	push	r9
    1d56:	af 92       	push	r10
    1d58:	bf 92       	push	r11
    1d5a:	cf 92       	push	r12
    1d5c:	df 92       	push	r13
    1d5e:	ef 92       	push	r14
    1d60:	ff 92       	push	r15
    1d62:	0f 93       	push	r16
    1d64:	1f 93       	push	r17
    1d66:	cf 93       	push	r28
    1d68:	df 93       	push	r29
    1d6a:	cd b7       	in	r28, 0x3d	; 61
    1d6c:	de b7       	in	r29, 0x3e	; 62
    1d6e:	2c 97       	sbiw	r28, 0x0c	; 12
    1d70:	cd bf       	out	0x3d, r28	; 61
    1d72:	de bf       	out	0x3e, r29	; 62
    1d74:	7c 01       	movw	r14, r24
    1d76:	6b 01       	movw	r12, r22
    1d78:	8a 01       	movw	r16, r20
    1d7a:	fc 01       	movw	r30, r24
    1d7c:	16 82       	std	Z+6, r1	; 0x06
    1d7e:	17 82       	std	Z+7, r1	; 0x07
    1d80:	83 81       	ldd	r24, Z+3	; 0x03
    1d82:	81 ff       	sbrs	r24, 1
    1d84:	b0 c1       	rjmp	.+864    	; 0x20e6 <vfprintf+0x3a0>
    1d86:	ce 01       	movw	r24, r28
    1d88:	01 96       	adiw	r24, 0x01	; 1
    1d8a:	4c 01       	movw	r8, r24
    1d8c:	f7 01       	movw	r30, r14
    1d8e:	93 81       	ldd	r25, Z+3	; 0x03
    1d90:	f6 01       	movw	r30, r12
    1d92:	93 fd       	sbrc	r25, 3
    1d94:	85 91       	lpm	r24, Z+
    1d96:	93 ff       	sbrs	r25, 3
    1d98:	81 91       	ld	r24, Z+
    1d9a:	6f 01       	movw	r12, r30
    1d9c:	88 23       	and	r24, r24
    1d9e:	09 f4       	brne	.+2      	; 0x1da2 <vfprintf+0x5c>
    1da0:	9e c1       	rjmp	.+828    	; 0x20de <vfprintf+0x398>
    1da2:	85 32       	cpi	r24, 0x25	; 37
    1da4:	39 f4       	brne	.+14     	; 0x1db4 <vfprintf+0x6e>
    1da6:	93 fd       	sbrc	r25, 3
    1da8:	85 91       	lpm	r24, Z+
    1daa:	93 ff       	sbrs	r25, 3
    1dac:	81 91       	ld	r24, Z+
    1dae:	6f 01       	movw	r12, r30
    1db0:	85 32       	cpi	r24, 0x25	; 37
    1db2:	21 f4       	brne	.+8      	; 0x1dbc <vfprintf+0x76>
    1db4:	b7 01       	movw	r22, r14
    1db6:	90 e0       	ldi	r25, 0x00	; 0
    1db8:	c4 d1       	rcall	.+904    	; 0x2142 <fputc>
    1dba:	e8 cf       	rjmp	.-48     	; 0x1d8c <vfprintf+0x46>
    1dbc:	51 2c       	mov	r5, r1
    1dbe:	31 2c       	mov	r3, r1
    1dc0:	20 e0       	ldi	r18, 0x00	; 0
    1dc2:	20 32       	cpi	r18, 0x20	; 32
    1dc4:	a0 f4       	brcc	.+40     	; 0x1dee <vfprintf+0xa8>
    1dc6:	8b 32       	cpi	r24, 0x2B	; 43
    1dc8:	69 f0       	breq	.+26     	; 0x1de4 <vfprintf+0x9e>
    1dca:	30 f4       	brcc	.+12     	; 0x1dd8 <vfprintf+0x92>
    1dcc:	80 32       	cpi	r24, 0x20	; 32
    1dce:	59 f0       	breq	.+22     	; 0x1de6 <vfprintf+0xa0>
    1dd0:	83 32       	cpi	r24, 0x23	; 35
    1dd2:	69 f4       	brne	.+26     	; 0x1dee <vfprintf+0xa8>
    1dd4:	20 61       	ori	r18, 0x10	; 16
    1dd6:	2c c0       	rjmp	.+88     	; 0x1e30 <vfprintf+0xea>
    1dd8:	8d 32       	cpi	r24, 0x2D	; 45
    1dda:	39 f0       	breq	.+14     	; 0x1dea <vfprintf+0xa4>
    1ddc:	80 33       	cpi	r24, 0x30	; 48
    1dde:	39 f4       	brne	.+14     	; 0x1dee <vfprintf+0xa8>
    1de0:	21 60       	ori	r18, 0x01	; 1
    1de2:	26 c0       	rjmp	.+76     	; 0x1e30 <vfprintf+0xea>
    1de4:	22 60       	ori	r18, 0x02	; 2
    1de6:	24 60       	ori	r18, 0x04	; 4
    1de8:	23 c0       	rjmp	.+70     	; 0x1e30 <vfprintf+0xea>
    1dea:	28 60       	ori	r18, 0x08	; 8
    1dec:	21 c0       	rjmp	.+66     	; 0x1e30 <vfprintf+0xea>
    1dee:	27 fd       	sbrc	r18, 7
    1df0:	27 c0       	rjmp	.+78     	; 0x1e40 <vfprintf+0xfa>
    1df2:	30 ed       	ldi	r19, 0xD0	; 208
    1df4:	38 0f       	add	r19, r24
    1df6:	3a 30       	cpi	r19, 0x0A	; 10
    1df8:	78 f4       	brcc	.+30     	; 0x1e18 <vfprintf+0xd2>
    1dfa:	26 ff       	sbrs	r18, 6
    1dfc:	06 c0       	rjmp	.+12     	; 0x1e0a <vfprintf+0xc4>
    1dfe:	fa e0       	ldi	r31, 0x0A	; 10
    1e00:	5f 9e       	mul	r5, r31
    1e02:	30 0d       	add	r19, r0
    1e04:	11 24       	eor	r1, r1
    1e06:	53 2e       	mov	r5, r19
    1e08:	13 c0       	rjmp	.+38     	; 0x1e30 <vfprintf+0xea>
    1e0a:	8a e0       	ldi	r24, 0x0A	; 10
    1e0c:	38 9e       	mul	r3, r24
    1e0e:	30 0d       	add	r19, r0
    1e10:	11 24       	eor	r1, r1
    1e12:	33 2e       	mov	r3, r19
    1e14:	20 62       	ori	r18, 0x20	; 32
    1e16:	0c c0       	rjmp	.+24     	; 0x1e30 <vfprintf+0xea>
    1e18:	8e 32       	cpi	r24, 0x2E	; 46
    1e1a:	21 f4       	brne	.+8      	; 0x1e24 <vfprintf+0xde>
    1e1c:	26 fd       	sbrc	r18, 6
    1e1e:	5f c1       	rjmp	.+702    	; 0x20de <vfprintf+0x398>
    1e20:	20 64       	ori	r18, 0x40	; 64
    1e22:	06 c0       	rjmp	.+12     	; 0x1e30 <vfprintf+0xea>
    1e24:	8c 36       	cpi	r24, 0x6C	; 108
    1e26:	11 f4       	brne	.+4      	; 0x1e2c <vfprintf+0xe6>
    1e28:	20 68       	ori	r18, 0x80	; 128
    1e2a:	02 c0       	rjmp	.+4      	; 0x1e30 <vfprintf+0xea>
    1e2c:	88 36       	cpi	r24, 0x68	; 104
    1e2e:	41 f4       	brne	.+16     	; 0x1e40 <vfprintf+0xfa>
    1e30:	f6 01       	movw	r30, r12
    1e32:	93 fd       	sbrc	r25, 3
    1e34:	85 91       	lpm	r24, Z+
    1e36:	93 ff       	sbrs	r25, 3
    1e38:	81 91       	ld	r24, Z+
    1e3a:	6f 01       	movw	r12, r30
    1e3c:	81 11       	cpse	r24, r1
    1e3e:	c1 cf       	rjmp	.-126    	; 0x1dc2 <vfprintf+0x7c>
    1e40:	98 2f       	mov	r25, r24
    1e42:	9f 7d       	andi	r25, 0xDF	; 223
    1e44:	95 54       	subi	r25, 0x45	; 69
    1e46:	93 30       	cpi	r25, 0x03	; 3
    1e48:	28 f4       	brcc	.+10     	; 0x1e54 <vfprintf+0x10e>
    1e4a:	0c 5f       	subi	r16, 0xFC	; 252
    1e4c:	1f 4f       	sbci	r17, 0xFF	; 255
    1e4e:	ff e3       	ldi	r31, 0x3F	; 63
    1e50:	f9 83       	std	Y+1, r31	; 0x01
    1e52:	0d c0       	rjmp	.+26     	; 0x1e6e <vfprintf+0x128>
    1e54:	83 36       	cpi	r24, 0x63	; 99
    1e56:	31 f0       	breq	.+12     	; 0x1e64 <vfprintf+0x11e>
    1e58:	83 37       	cpi	r24, 0x73	; 115
    1e5a:	71 f0       	breq	.+28     	; 0x1e78 <vfprintf+0x132>
    1e5c:	83 35       	cpi	r24, 0x53	; 83
    1e5e:	09 f0       	breq	.+2      	; 0x1e62 <vfprintf+0x11c>
    1e60:	57 c0       	rjmp	.+174    	; 0x1f10 <vfprintf+0x1ca>
    1e62:	21 c0       	rjmp	.+66     	; 0x1ea6 <vfprintf+0x160>
    1e64:	f8 01       	movw	r30, r16
    1e66:	80 81       	ld	r24, Z
    1e68:	89 83       	std	Y+1, r24	; 0x01
    1e6a:	0e 5f       	subi	r16, 0xFE	; 254
    1e6c:	1f 4f       	sbci	r17, 0xFF	; 255
    1e6e:	44 24       	eor	r4, r4
    1e70:	43 94       	inc	r4
    1e72:	51 2c       	mov	r5, r1
    1e74:	54 01       	movw	r10, r8
    1e76:	14 c0       	rjmp	.+40     	; 0x1ea0 <vfprintf+0x15a>
    1e78:	38 01       	movw	r6, r16
    1e7a:	f2 e0       	ldi	r31, 0x02	; 2
    1e7c:	6f 0e       	add	r6, r31
    1e7e:	71 1c       	adc	r7, r1
    1e80:	f8 01       	movw	r30, r16
    1e82:	a0 80       	ld	r10, Z
    1e84:	b1 80       	ldd	r11, Z+1	; 0x01
    1e86:	26 ff       	sbrs	r18, 6
    1e88:	03 c0       	rjmp	.+6      	; 0x1e90 <vfprintf+0x14a>
    1e8a:	65 2d       	mov	r22, r5
    1e8c:	70 e0       	ldi	r23, 0x00	; 0
    1e8e:	02 c0       	rjmp	.+4      	; 0x1e94 <vfprintf+0x14e>
    1e90:	6f ef       	ldi	r22, 0xFF	; 255
    1e92:	7f ef       	ldi	r23, 0xFF	; 255
    1e94:	c5 01       	movw	r24, r10
    1e96:	2c 87       	std	Y+12, r18	; 0x0c
    1e98:	49 d1       	rcall	.+658    	; 0x212c <strnlen>
    1e9a:	2c 01       	movw	r4, r24
    1e9c:	83 01       	movw	r16, r6
    1e9e:	2c 85       	ldd	r18, Y+12	; 0x0c
    1ea0:	2f 77       	andi	r18, 0x7F	; 127
    1ea2:	22 2e       	mov	r2, r18
    1ea4:	16 c0       	rjmp	.+44     	; 0x1ed2 <vfprintf+0x18c>
    1ea6:	38 01       	movw	r6, r16
    1ea8:	f2 e0       	ldi	r31, 0x02	; 2
    1eaa:	6f 0e       	add	r6, r31
    1eac:	71 1c       	adc	r7, r1
    1eae:	f8 01       	movw	r30, r16
    1eb0:	a0 80       	ld	r10, Z
    1eb2:	b1 80       	ldd	r11, Z+1	; 0x01
    1eb4:	26 ff       	sbrs	r18, 6
    1eb6:	03 c0       	rjmp	.+6      	; 0x1ebe <vfprintf+0x178>
    1eb8:	65 2d       	mov	r22, r5
    1eba:	70 e0       	ldi	r23, 0x00	; 0
    1ebc:	02 c0       	rjmp	.+4      	; 0x1ec2 <vfprintf+0x17c>
    1ebe:	6f ef       	ldi	r22, 0xFF	; 255
    1ec0:	7f ef       	ldi	r23, 0xFF	; 255
    1ec2:	c5 01       	movw	r24, r10
    1ec4:	2c 87       	std	Y+12, r18	; 0x0c
    1ec6:	27 d1       	rcall	.+590    	; 0x2116 <strnlen_P>
    1ec8:	2c 01       	movw	r4, r24
    1eca:	2c 85       	ldd	r18, Y+12	; 0x0c
    1ecc:	20 68       	ori	r18, 0x80	; 128
    1ece:	22 2e       	mov	r2, r18
    1ed0:	83 01       	movw	r16, r6
    1ed2:	23 fc       	sbrc	r2, 3
    1ed4:	19 c0       	rjmp	.+50     	; 0x1f08 <vfprintf+0x1c2>
    1ed6:	83 2d       	mov	r24, r3
    1ed8:	90 e0       	ldi	r25, 0x00	; 0
    1eda:	48 16       	cp	r4, r24
    1edc:	59 06       	cpc	r5, r25
    1ede:	a0 f4       	brcc	.+40     	; 0x1f08 <vfprintf+0x1c2>
    1ee0:	b7 01       	movw	r22, r14
    1ee2:	80 e2       	ldi	r24, 0x20	; 32
    1ee4:	90 e0       	ldi	r25, 0x00	; 0
    1ee6:	2d d1       	rcall	.+602    	; 0x2142 <fputc>
    1ee8:	3a 94       	dec	r3
    1eea:	f5 cf       	rjmp	.-22     	; 0x1ed6 <vfprintf+0x190>
    1eec:	f5 01       	movw	r30, r10
    1eee:	27 fc       	sbrc	r2, 7
    1ef0:	85 91       	lpm	r24, Z+
    1ef2:	27 fe       	sbrs	r2, 7
    1ef4:	81 91       	ld	r24, Z+
    1ef6:	5f 01       	movw	r10, r30
    1ef8:	b7 01       	movw	r22, r14
    1efa:	90 e0       	ldi	r25, 0x00	; 0
    1efc:	22 d1       	rcall	.+580    	; 0x2142 <fputc>
    1efe:	31 10       	cpse	r3, r1
    1f00:	3a 94       	dec	r3
    1f02:	f1 e0       	ldi	r31, 0x01	; 1
    1f04:	4f 1a       	sub	r4, r31
    1f06:	51 08       	sbc	r5, r1
    1f08:	41 14       	cp	r4, r1
    1f0a:	51 04       	cpc	r5, r1
    1f0c:	79 f7       	brne	.-34     	; 0x1eec <vfprintf+0x1a6>
    1f0e:	de c0       	rjmp	.+444    	; 0x20cc <vfprintf+0x386>
    1f10:	84 36       	cpi	r24, 0x64	; 100
    1f12:	11 f0       	breq	.+4      	; 0x1f18 <vfprintf+0x1d2>
    1f14:	89 36       	cpi	r24, 0x69	; 105
    1f16:	31 f5       	brne	.+76     	; 0x1f64 <vfprintf+0x21e>
    1f18:	f8 01       	movw	r30, r16
    1f1a:	27 ff       	sbrs	r18, 7
    1f1c:	07 c0       	rjmp	.+14     	; 0x1f2c <vfprintf+0x1e6>
    1f1e:	60 81       	ld	r22, Z
    1f20:	71 81       	ldd	r23, Z+1	; 0x01
    1f22:	82 81       	ldd	r24, Z+2	; 0x02
    1f24:	93 81       	ldd	r25, Z+3	; 0x03
    1f26:	0c 5f       	subi	r16, 0xFC	; 252
    1f28:	1f 4f       	sbci	r17, 0xFF	; 255
    1f2a:	08 c0       	rjmp	.+16     	; 0x1f3c <vfprintf+0x1f6>
    1f2c:	60 81       	ld	r22, Z
    1f2e:	71 81       	ldd	r23, Z+1	; 0x01
    1f30:	88 27       	eor	r24, r24
    1f32:	77 fd       	sbrc	r23, 7
    1f34:	80 95       	com	r24
    1f36:	98 2f       	mov	r25, r24
    1f38:	0e 5f       	subi	r16, 0xFE	; 254
    1f3a:	1f 4f       	sbci	r17, 0xFF	; 255
    1f3c:	2f 76       	andi	r18, 0x6F	; 111
    1f3e:	b2 2e       	mov	r11, r18
    1f40:	97 ff       	sbrs	r25, 7
    1f42:	09 c0       	rjmp	.+18     	; 0x1f56 <vfprintf+0x210>
    1f44:	90 95       	com	r25
    1f46:	80 95       	com	r24
    1f48:	70 95       	com	r23
    1f4a:	61 95       	neg	r22
    1f4c:	7f 4f       	sbci	r23, 0xFF	; 255
    1f4e:	8f 4f       	sbci	r24, 0xFF	; 255
    1f50:	9f 4f       	sbci	r25, 0xFF	; 255
    1f52:	20 68       	ori	r18, 0x80	; 128
    1f54:	b2 2e       	mov	r11, r18
    1f56:	2a e0       	ldi	r18, 0x0A	; 10
    1f58:	30 e0       	ldi	r19, 0x00	; 0
    1f5a:	a4 01       	movw	r20, r8
    1f5c:	24 d1       	rcall	.+584    	; 0x21a6 <__ultoa_invert>
    1f5e:	a8 2e       	mov	r10, r24
    1f60:	a8 18       	sub	r10, r8
    1f62:	43 c0       	rjmp	.+134    	; 0x1fea <vfprintf+0x2a4>
    1f64:	85 37       	cpi	r24, 0x75	; 117
    1f66:	29 f4       	brne	.+10     	; 0x1f72 <vfprintf+0x22c>
    1f68:	2f 7e       	andi	r18, 0xEF	; 239
    1f6a:	b2 2e       	mov	r11, r18
    1f6c:	2a e0       	ldi	r18, 0x0A	; 10
    1f6e:	30 e0       	ldi	r19, 0x00	; 0
    1f70:	25 c0       	rjmp	.+74     	; 0x1fbc <vfprintf+0x276>
    1f72:	f2 2f       	mov	r31, r18
    1f74:	f9 7f       	andi	r31, 0xF9	; 249
    1f76:	bf 2e       	mov	r11, r31
    1f78:	8f 36       	cpi	r24, 0x6F	; 111
    1f7a:	c1 f0       	breq	.+48     	; 0x1fac <vfprintf+0x266>
    1f7c:	18 f4       	brcc	.+6      	; 0x1f84 <vfprintf+0x23e>
    1f7e:	88 35       	cpi	r24, 0x58	; 88
    1f80:	79 f0       	breq	.+30     	; 0x1fa0 <vfprintf+0x25a>
    1f82:	ad c0       	rjmp	.+346    	; 0x20de <vfprintf+0x398>
    1f84:	80 37       	cpi	r24, 0x70	; 112
    1f86:	19 f0       	breq	.+6      	; 0x1f8e <vfprintf+0x248>
    1f88:	88 37       	cpi	r24, 0x78	; 120
    1f8a:	21 f0       	breq	.+8      	; 0x1f94 <vfprintf+0x24e>
    1f8c:	a8 c0       	rjmp	.+336    	; 0x20de <vfprintf+0x398>
    1f8e:	2f 2f       	mov	r18, r31
    1f90:	20 61       	ori	r18, 0x10	; 16
    1f92:	b2 2e       	mov	r11, r18
    1f94:	b4 fe       	sbrs	r11, 4
    1f96:	0d c0       	rjmp	.+26     	; 0x1fb2 <vfprintf+0x26c>
    1f98:	8b 2d       	mov	r24, r11
    1f9a:	84 60       	ori	r24, 0x04	; 4
    1f9c:	b8 2e       	mov	r11, r24
    1f9e:	09 c0       	rjmp	.+18     	; 0x1fb2 <vfprintf+0x26c>
    1fa0:	24 ff       	sbrs	r18, 4
    1fa2:	0a c0       	rjmp	.+20     	; 0x1fb8 <vfprintf+0x272>
    1fa4:	9f 2f       	mov	r25, r31
    1fa6:	96 60       	ori	r25, 0x06	; 6
    1fa8:	b9 2e       	mov	r11, r25
    1faa:	06 c0       	rjmp	.+12     	; 0x1fb8 <vfprintf+0x272>
    1fac:	28 e0       	ldi	r18, 0x08	; 8
    1fae:	30 e0       	ldi	r19, 0x00	; 0
    1fb0:	05 c0       	rjmp	.+10     	; 0x1fbc <vfprintf+0x276>
    1fb2:	20 e1       	ldi	r18, 0x10	; 16
    1fb4:	30 e0       	ldi	r19, 0x00	; 0
    1fb6:	02 c0       	rjmp	.+4      	; 0x1fbc <vfprintf+0x276>
    1fb8:	20 e1       	ldi	r18, 0x10	; 16
    1fba:	32 e0       	ldi	r19, 0x02	; 2
    1fbc:	f8 01       	movw	r30, r16
    1fbe:	b7 fe       	sbrs	r11, 7
    1fc0:	07 c0       	rjmp	.+14     	; 0x1fd0 <vfprintf+0x28a>
    1fc2:	60 81       	ld	r22, Z
    1fc4:	71 81       	ldd	r23, Z+1	; 0x01
    1fc6:	82 81       	ldd	r24, Z+2	; 0x02
    1fc8:	93 81       	ldd	r25, Z+3	; 0x03
    1fca:	0c 5f       	subi	r16, 0xFC	; 252
    1fcc:	1f 4f       	sbci	r17, 0xFF	; 255
    1fce:	06 c0       	rjmp	.+12     	; 0x1fdc <vfprintf+0x296>
    1fd0:	60 81       	ld	r22, Z
    1fd2:	71 81       	ldd	r23, Z+1	; 0x01
    1fd4:	80 e0       	ldi	r24, 0x00	; 0
    1fd6:	90 e0       	ldi	r25, 0x00	; 0
    1fd8:	0e 5f       	subi	r16, 0xFE	; 254
    1fda:	1f 4f       	sbci	r17, 0xFF	; 255
    1fdc:	a4 01       	movw	r20, r8
    1fde:	e3 d0       	rcall	.+454    	; 0x21a6 <__ultoa_invert>
    1fe0:	a8 2e       	mov	r10, r24
    1fe2:	a8 18       	sub	r10, r8
    1fe4:	fb 2d       	mov	r31, r11
    1fe6:	ff 77       	andi	r31, 0x7F	; 127
    1fe8:	bf 2e       	mov	r11, r31
    1fea:	b6 fe       	sbrs	r11, 6
    1fec:	0b c0       	rjmp	.+22     	; 0x2004 <vfprintf+0x2be>
    1fee:	2b 2d       	mov	r18, r11
    1ff0:	2e 7f       	andi	r18, 0xFE	; 254
    1ff2:	a5 14       	cp	r10, r5
    1ff4:	50 f4       	brcc	.+20     	; 0x200a <vfprintf+0x2c4>
    1ff6:	b4 fe       	sbrs	r11, 4
    1ff8:	0a c0       	rjmp	.+20     	; 0x200e <vfprintf+0x2c8>
    1ffa:	b2 fc       	sbrc	r11, 2
    1ffc:	08 c0       	rjmp	.+16     	; 0x200e <vfprintf+0x2c8>
    1ffe:	2b 2d       	mov	r18, r11
    2000:	2e 7e       	andi	r18, 0xEE	; 238
    2002:	05 c0       	rjmp	.+10     	; 0x200e <vfprintf+0x2c8>
    2004:	7a 2c       	mov	r7, r10
    2006:	2b 2d       	mov	r18, r11
    2008:	03 c0       	rjmp	.+6      	; 0x2010 <vfprintf+0x2ca>
    200a:	7a 2c       	mov	r7, r10
    200c:	01 c0       	rjmp	.+2      	; 0x2010 <vfprintf+0x2ca>
    200e:	75 2c       	mov	r7, r5
    2010:	24 ff       	sbrs	r18, 4
    2012:	0d c0       	rjmp	.+26     	; 0x202e <vfprintf+0x2e8>
    2014:	fe 01       	movw	r30, r28
    2016:	ea 0d       	add	r30, r10
    2018:	f1 1d       	adc	r31, r1
    201a:	80 81       	ld	r24, Z
    201c:	80 33       	cpi	r24, 0x30	; 48
    201e:	11 f4       	brne	.+4      	; 0x2024 <vfprintf+0x2de>
    2020:	29 7e       	andi	r18, 0xE9	; 233
    2022:	09 c0       	rjmp	.+18     	; 0x2036 <vfprintf+0x2f0>
    2024:	22 ff       	sbrs	r18, 2
    2026:	06 c0       	rjmp	.+12     	; 0x2034 <vfprintf+0x2ee>
    2028:	73 94       	inc	r7
    202a:	73 94       	inc	r7
    202c:	04 c0       	rjmp	.+8      	; 0x2036 <vfprintf+0x2f0>
    202e:	82 2f       	mov	r24, r18
    2030:	86 78       	andi	r24, 0x86	; 134
    2032:	09 f0       	breq	.+2      	; 0x2036 <vfprintf+0x2f0>
    2034:	73 94       	inc	r7
    2036:	23 fd       	sbrc	r18, 3
    2038:	12 c0       	rjmp	.+36     	; 0x205e <vfprintf+0x318>
    203a:	20 ff       	sbrs	r18, 0
    203c:	06 c0       	rjmp	.+12     	; 0x204a <vfprintf+0x304>
    203e:	5a 2c       	mov	r5, r10
    2040:	73 14       	cp	r7, r3
    2042:	18 f4       	brcc	.+6      	; 0x204a <vfprintf+0x304>
    2044:	53 0c       	add	r5, r3
    2046:	57 18       	sub	r5, r7
    2048:	73 2c       	mov	r7, r3
    204a:	73 14       	cp	r7, r3
    204c:	60 f4       	brcc	.+24     	; 0x2066 <vfprintf+0x320>
    204e:	b7 01       	movw	r22, r14
    2050:	80 e2       	ldi	r24, 0x20	; 32
    2052:	90 e0       	ldi	r25, 0x00	; 0
    2054:	2c 87       	std	Y+12, r18	; 0x0c
    2056:	75 d0       	rcall	.+234    	; 0x2142 <fputc>
    2058:	73 94       	inc	r7
    205a:	2c 85       	ldd	r18, Y+12	; 0x0c
    205c:	f6 cf       	rjmp	.-20     	; 0x204a <vfprintf+0x304>
    205e:	73 14       	cp	r7, r3
    2060:	10 f4       	brcc	.+4      	; 0x2066 <vfprintf+0x320>
    2062:	37 18       	sub	r3, r7
    2064:	01 c0       	rjmp	.+2      	; 0x2068 <vfprintf+0x322>
    2066:	31 2c       	mov	r3, r1
    2068:	24 ff       	sbrs	r18, 4
    206a:	11 c0       	rjmp	.+34     	; 0x208e <vfprintf+0x348>
    206c:	b7 01       	movw	r22, r14
    206e:	80 e3       	ldi	r24, 0x30	; 48
    2070:	90 e0       	ldi	r25, 0x00	; 0
    2072:	2c 87       	std	Y+12, r18	; 0x0c
    2074:	66 d0       	rcall	.+204    	; 0x2142 <fputc>
    2076:	2c 85       	ldd	r18, Y+12	; 0x0c
    2078:	22 ff       	sbrs	r18, 2
    207a:	16 c0       	rjmp	.+44     	; 0x20a8 <vfprintf+0x362>
    207c:	21 ff       	sbrs	r18, 1
    207e:	03 c0       	rjmp	.+6      	; 0x2086 <vfprintf+0x340>
    2080:	88 e5       	ldi	r24, 0x58	; 88
    2082:	90 e0       	ldi	r25, 0x00	; 0
    2084:	02 c0       	rjmp	.+4      	; 0x208a <vfprintf+0x344>
    2086:	88 e7       	ldi	r24, 0x78	; 120
    2088:	90 e0       	ldi	r25, 0x00	; 0
    208a:	b7 01       	movw	r22, r14
    208c:	0c c0       	rjmp	.+24     	; 0x20a6 <vfprintf+0x360>
    208e:	82 2f       	mov	r24, r18
    2090:	86 78       	andi	r24, 0x86	; 134
    2092:	51 f0       	breq	.+20     	; 0x20a8 <vfprintf+0x362>
    2094:	21 fd       	sbrc	r18, 1
    2096:	02 c0       	rjmp	.+4      	; 0x209c <vfprintf+0x356>
    2098:	80 e2       	ldi	r24, 0x20	; 32
    209a:	01 c0       	rjmp	.+2      	; 0x209e <vfprintf+0x358>
    209c:	8b e2       	ldi	r24, 0x2B	; 43
    209e:	27 fd       	sbrc	r18, 7
    20a0:	8d e2       	ldi	r24, 0x2D	; 45
    20a2:	b7 01       	movw	r22, r14
    20a4:	90 e0       	ldi	r25, 0x00	; 0
    20a6:	4d d0       	rcall	.+154    	; 0x2142 <fputc>
    20a8:	a5 14       	cp	r10, r5
    20aa:	30 f4       	brcc	.+12     	; 0x20b8 <vfprintf+0x372>
    20ac:	b7 01       	movw	r22, r14
    20ae:	80 e3       	ldi	r24, 0x30	; 48
    20b0:	90 e0       	ldi	r25, 0x00	; 0
    20b2:	47 d0       	rcall	.+142    	; 0x2142 <fputc>
    20b4:	5a 94       	dec	r5
    20b6:	f8 cf       	rjmp	.-16     	; 0x20a8 <vfprintf+0x362>
    20b8:	aa 94       	dec	r10
    20ba:	f4 01       	movw	r30, r8
    20bc:	ea 0d       	add	r30, r10
    20be:	f1 1d       	adc	r31, r1
    20c0:	80 81       	ld	r24, Z
    20c2:	b7 01       	movw	r22, r14
    20c4:	90 e0       	ldi	r25, 0x00	; 0
    20c6:	3d d0       	rcall	.+122    	; 0x2142 <fputc>
    20c8:	a1 10       	cpse	r10, r1
    20ca:	f6 cf       	rjmp	.-20     	; 0x20b8 <vfprintf+0x372>
    20cc:	33 20       	and	r3, r3
    20ce:	09 f4       	brne	.+2      	; 0x20d2 <vfprintf+0x38c>
    20d0:	5d ce       	rjmp	.-838    	; 0x1d8c <vfprintf+0x46>
    20d2:	b7 01       	movw	r22, r14
    20d4:	80 e2       	ldi	r24, 0x20	; 32
    20d6:	90 e0       	ldi	r25, 0x00	; 0
    20d8:	34 d0       	rcall	.+104    	; 0x2142 <fputc>
    20da:	3a 94       	dec	r3
    20dc:	f7 cf       	rjmp	.-18     	; 0x20cc <vfprintf+0x386>
    20de:	f7 01       	movw	r30, r14
    20e0:	86 81       	ldd	r24, Z+6	; 0x06
    20e2:	97 81       	ldd	r25, Z+7	; 0x07
    20e4:	02 c0       	rjmp	.+4      	; 0x20ea <vfprintf+0x3a4>
    20e6:	8f ef       	ldi	r24, 0xFF	; 255
    20e8:	9f ef       	ldi	r25, 0xFF	; 255
    20ea:	2c 96       	adiw	r28, 0x0c	; 12
    20ec:	cd bf       	out	0x3d, r28	; 61
    20ee:	de bf       	out	0x3e, r29	; 62
    20f0:	df 91       	pop	r29
    20f2:	cf 91       	pop	r28
    20f4:	1f 91       	pop	r17
    20f6:	0f 91       	pop	r16
    20f8:	ff 90       	pop	r15
    20fa:	ef 90       	pop	r14
    20fc:	df 90       	pop	r13
    20fe:	cf 90       	pop	r12
    2100:	bf 90       	pop	r11
    2102:	af 90       	pop	r10
    2104:	9f 90       	pop	r9
    2106:	8f 90       	pop	r8
    2108:	7f 90       	pop	r7
    210a:	6f 90       	pop	r6
    210c:	5f 90       	pop	r5
    210e:	4f 90       	pop	r4
    2110:	3f 90       	pop	r3
    2112:	2f 90       	pop	r2
    2114:	08 95       	ret

00002116 <strnlen_P>:
    2116:	fc 01       	movw	r30, r24
    2118:	05 90       	lpm	r0, Z+
    211a:	61 50       	subi	r22, 0x01	; 1
    211c:	70 40       	sbci	r23, 0x00	; 0
    211e:	01 10       	cpse	r0, r1
    2120:	d8 f7       	brcc	.-10     	; 0x2118 <strnlen_P+0x2>
    2122:	80 95       	com	r24
    2124:	90 95       	com	r25
    2126:	8e 0f       	add	r24, r30
    2128:	9f 1f       	adc	r25, r31
    212a:	08 95       	ret

0000212c <strnlen>:
    212c:	fc 01       	movw	r30, r24
    212e:	61 50       	subi	r22, 0x01	; 1
    2130:	70 40       	sbci	r23, 0x00	; 0
    2132:	01 90       	ld	r0, Z+
    2134:	01 10       	cpse	r0, r1
    2136:	d8 f7       	brcc	.-10     	; 0x212e <strnlen+0x2>
    2138:	80 95       	com	r24
    213a:	90 95       	com	r25
    213c:	8e 0f       	add	r24, r30
    213e:	9f 1f       	adc	r25, r31
    2140:	08 95       	ret

00002142 <fputc>:
    2142:	0f 93       	push	r16
    2144:	1f 93       	push	r17
    2146:	cf 93       	push	r28
    2148:	df 93       	push	r29
    214a:	18 2f       	mov	r17, r24
    214c:	09 2f       	mov	r16, r25
    214e:	eb 01       	movw	r28, r22
    2150:	8b 81       	ldd	r24, Y+3	; 0x03
    2152:	81 fd       	sbrc	r24, 1
    2154:	03 c0       	rjmp	.+6      	; 0x215c <fputc+0x1a>
    2156:	8f ef       	ldi	r24, 0xFF	; 255
    2158:	9f ef       	ldi	r25, 0xFF	; 255
    215a:	20 c0       	rjmp	.+64     	; 0x219c <fputc+0x5a>
    215c:	82 ff       	sbrs	r24, 2
    215e:	10 c0       	rjmp	.+32     	; 0x2180 <fputc+0x3e>
    2160:	4e 81       	ldd	r20, Y+6	; 0x06
    2162:	5f 81       	ldd	r21, Y+7	; 0x07
    2164:	2c 81       	ldd	r18, Y+4	; 0x04
    2166:	3d 81       	ldd	r19, Y+5	; 0x05
    2168:	42 17       	cp	r20, r18
    216a:	53 07       	cpc	r21, r19
    216c:	7c f4       	brge	.+30     	; 0x218c <fputc+0x4a>
    216e:	e8 81       	ld	r30, Y
    2170:	f9 81       	ldd	r31, Y+1	; 0x01
    2172:	9f 01       	movw	r18, r30
    2174:	2f 5f       	subi	r18, 0xFF	; 255
    2176:	3f 4f       	sbci	r19, 0xFF	; 255
    2178:	28 83       	st	Y, r18
    217a:	39 83       	std	Y+1, r19	; 0x01
    217c:	10 83       	st	Z, r17
    217e:	06 c0       	rjmp	.+12     	; 0x218c <fputc+0x4a>
    2180:	e8 85       	ldd	r30, Y+8	; 0x08
    2182:	f9 85       	ldd	r31, Y+9	; 0x09
    2184:	81 2f       	mov	r24, r17
    2186:	19 95       	eicall
    2188:	89 2b       	or	r24, r25
    218a:	29 f7       	brne	.-54     	; 0x2156 <fputc+0x14>
    218c:	2e 81       	ldd	r18, Y+6	; 0x06
    218e:	3f 81       	ldd	r19, Y+7	; 0x07
    2190:	2f 5f       	subi	r18, 0xFF	; 255
    2192:	3f 4f       	sbci	r19, 0xFF	; 255
    2194:	2e 83       	std	Y+6, r18	; 0x06
    2196:	3f 83       	std	Y+7, r19	; 0x07
    2198:	81 2f       	mov	r24, r17
    219a:	90 2f       	mov	r25, r16
    219c:	df 91       	pop	r29
    219e:	cf 91       	pop	r28
    21a0:	1f 91       	pop	r17
    21a2:	0f 91       	pop	r16
    21a4:	08 95       	ret

000021a6 <__ultoa_invert>:
    21a6:	fa 01       	movw	r30, r20
    21a8:	aa 27       	eor	r26, r26
    21aa:	28 30       	cpi	r18, 0x08	; 8
    21ac:	51 f1       	breq	.+84     	; 0x2202 <__ultoa_invert+0x5c>
    21ae:	20 31       	cpi	r18, 0x10	; 16
    21b0:	81 f1       	breq	.+96     	; 0x2212 <__ultoa_invert+0x6c>
    21b2:	e8 94       	clt
    21b4:	6f 93       	push	r22
    21b6:	6e 7f       	andi	r22, 0xFE	; 254
    21b8:	6e 5f       	subi	r22, 0xFE	; 254
    21ba:	7f 4f       	sbci	r23, 0xFF	; 255
    21bc:	8f 4f       	sbci	r24, 0xFF	; 255
    21be:	9f 4f       	sbci	r25, 0xFF	; 255
    21c0:	af 4f       	sbci	r26, 0xFF	; 255
    21c2:	b1 e0       	ldi	r27, 0x01	; 1
    21c4:	3e d0       	rcall	.+124    	; 0x2242 <__ultoa_invert+0x9c>
    21c6:	b4 e0       	ldi	r27, 0x04	; 4
    21c8:	3c d0       	rcall	.+120    	; 0x2242 <__ultoa_invert+0x9c>
    21ca:	67 0f       	add	r22, r23
    21cc:	78 1f       	adc	r23, r24
    21ce:	89 1f       	adc	r24, r25
    21d0:	9a 1f       	adc	r25, r26
    21d2:	a1 1d       	adc	r26, r1
    21d4:	68 0f       	add	r22, r24
    21d6:	79 1f       	adc	r23, r25
    21d8:	8a 1f       	adc	r24, r26
    21da:	91 1d       	adc	r25, r1
    21dc:	a1 1d       	adc	r26, r1
    21de:	6a 0f       	add	r22, r26
    21e0:	71 1d       	adc	r23, r1
    21e2:	81 1d       	adc	r24, r1
    21e4:	91 1d       	adc	r25, r1
    21e6:	a1 1d       	adc	r26, r1
    21e8:	20 d0       	rcall	.+64     	; 0x222a <__ultoa_invert+0x84>
    21ea:	09 f4       	brne	.+2      	; 0x21ee <__ultoa_invert+0x48>
    21ec:	68 94       	set
    21ee:	3f 91       	pop	r19
    21f0:	2a e0       	ldi	r18, 0x0A	; 10
    21f2:	26 9f       	mul	r18, r22
    21f4:	11 24       	eor	r1, r1
    21f6:	30 19       	sub	r19, r0
    21f8:	30 5d       	subi	r19, 0xD0	; 208
    21fa:	31 93       	st	Z+, r19
    21fc:	de f6       	brtc	.-74     	; 0x21b4 <__ultoa_invert+0xe>
    21fe:	cf 01       	movw	r24, r30
    2200:	08 95       	ret
    2202:	46 2f       	mov	r20, r22
    2204:	47 70       	andi	r20, 0x07	; 7
    2206:	40 5d       	subi	r20, 0xD0	; 208
    2208:	41 93       	st	Z+, r20
    220a:	b3 e0       	ldi	r27, 0x03	; 3
    220c:	0f d0       	rcall	.+30     	; 0x222c <__ultoa_invert+0x86>
    220e:	c9 f7       	brne	.-14     	; 0x2202 <__ultoa_invert+0x5c>
    2210:	f6 cf       	rjmp	.-20     	; 0x21fe <__ultoa_invert+0x58>
    2212:	46 2f       	mov	r20, r22
    2214:	4f 70       	andi	r20, 0x0F	; 15
    2216:	40 5d       	subi	r20, 0xD0	; 208
    2218:	4a 33       	cpi	r20, 0x3A	; 58
    221a:	18 f0       	brcs	.+6      	; 0x2222 <__ultoa_invert+0x7c>
    221c:	49 5d       	subi	r20, 0xD9	; 217
    221e:	31 fd       	sbrc	r19, 1
    2220:	40 52       	subi	r20, 0x20	; 32
    2222:	41 93       	st	Z+, r20
    2224:	02 d0       	rcall	.+4      	; 0x222a <__ultoa_invert+0x84>
    2226:	a9 f7       	brne	.-22     	; 0x2212 <__ultoa_invert+0x6c>
    2228:	ea cf       	rjmp	.-44     	; 0x21fe <__ultoa_invert+0x58>
    222a:	b4 e0       	ldi	r27, 0x04	; 4
    222c:	a6 95       	lsr	r26
    222e:	97 95       	ror	r25
    2230:	87 95       	ror	r24
    2232:	77 95       	ror	r23
    2234:	67 95       	ror	r22
    2236:	ba 95       	dec	r27
    2238:	c9 f7       	brne	.-14     	; 0x222c <__ultoa_invert+0x86>
    223a:	00 97       	sbiw	r24, 0x00	; 0
    223c:	61 05       	cpc	r22, r1
    223e:	71 05       	cpc	r23, r1
    2240:	08 95       	ret
    2242:	9b 01       	movw	r18, r22
    2244:	ac 01       	movw	r20, r24
    2246:	0a 2e       	mov	r0, r26
    2248:	06 94       	lsr	r0
    224a:	57 95       	ror	r21
    224c:	47 95       	ror	r20
    224e:	37 95       	ror	r19
    2250:	27 95       	ror	r18
    2252:	ba 95       	dec	r27
    2254:	c9 f7       	brne	.-14     	; 0x2248 <__ultoa_invert+0xa2>
    2256:	62 0f       	add	r22, r18
    2258:	73 1f       	adc	r23, r19
    225a:	84 1f       	adc	r24, r20
    225c:	95 1f       	adc	r25, r21
    225e:	a0 1d       	adc	r26, r0
    2260:	08 95       	ret

00002262 <_exit>:
    2262:	f8 94       	cli

00002264 <__stop_program>:
    2264:	ff cf       	rjmp	.-2      	; 0x2264 <__stop_program>
